
juicevm_boot.elf:     file format elf64-littleriscv


Disassembly of section .text:

0000000080000000 <_start>:
    80000000:	00600117          	auipc	sp,0x600
    80000004:	00010113          	mv	sp,sp
    80000008:	06100913          	li	s2,97
    8000000c:	1010031b          	addiw	t1,zero,257
    80000010:	01731313          	slli	t1,t1,0x17
    80000014:	01230023          	sb	s2,0(t1)
    80000018:	00a00913          	li	s2,10
    8000001c:	1010031b          	addiw	t1,zero,257
    80000020:	01731313          	slli	t1,t1,0x17
    80000024:	01230023          	sb	s2,0(t1)
    80000028:	0080006f          	j	80000030 <reset_vector>
    8000002c:	00000013          	nop

0000000080000030 <reset_vector>:
    80000030:	07200913          	li	s2,114
    80000034:	1010031b          	addiw	t1,zero,257
    80000038:	01731313          	slli	t1,t1,0x17
    8000003c:	01230023          	sb	s2,0(t1)
    80000040:	00a00913          	li	s2,10
    80000044:	1010031b          	addiw	t1,zero,257
    80000048:	01731313          	slli	t1,t1,0x17
    8000004c:	01230023          	sb	s2,0(t1)
    80000050:	00000517          	auipc	a0,0x0
    80000054:	03050513          	addi	a0,a0,48 # 80000080 <e_vertor>
    80000058:	00003517          	auipc	a0,0x3
    8000005c:	f1850513          	addi	a0,a0,-232 # 80002f70 <__bss_end>
    80000060:	00003597          	auipc	a1,0x3
    80000064:	f1058593          	addi	a1,a1,-240 # 80002f70 <__bss_end>
    80000068:	00b57863          	bgeu	a0,a1,80000078 <reset_vector+0x48>
    8000006c:	00052023          	sw	zero,0(a0)
    80000070:	00450513          	addi	a0,a0,4
    80000074:	feb56ce3          	bltu	a0,a1,8000006c <reset_vector+0x3c>
    80000078:	03c000ef          	jal	ra,800000b4 <main>
    8000007c:	c0001073          	unimp

0000000080000080 <e_vertor>:
    80000080:	06500913          	li	s2,101
    80000084:	1010031b          	addiw	t1,zero,257
    80000088:	01731313          	slli	t1,t1,0x17
    8000008c:	01230023          	sb	s2,0(t1)
    80000090:	34202573          	csrr	a0,mcause
    80000094:	050000ef          	jal	ra,800000e4 <execption_handle>
    80000098:	342032f3          	csrrc	t0,mcause,zero
    8000009c:	30200073          	mret
    800000a0:	0000                	unimp
    800000a2:	0000                	unimp
    800000a4:	0000                	unimp
    800000a6:	0000                	unimp
    800000a8:	0000                	unimp
    800000aa:	0000                	unimp
    800000ac:	0000                	unimp
    800000ae:	0000                	unimp
    800000b0:	0000                	unimp
    800000b2:	0000                	unimp

00000000800000b4 <main>:
    800000b4:	ff010113          	addi	sp,sp,-16 # 805ffff0 <__bss_end+0x5fd080>
    800000b8:	00800613          	li	a2,8
    800000bc:	00003597          	auipc	a1,0x3
    800000c0:	bdc58593          	addi	a1,a1,-1060 # 80002c98 <__FUNCTION__.0>
    800000c4:	00003517          	auipc	a0,0x3
    800000c8:	c7c50513          	addi	a0,a0,-900 # 80002d40 <__FUNCTION__.0+0xa8>
    800000cc:	00113423          	sd	ra,8(sp)
    800000d0:	61c010ef          	jal	ra,800016ec <printf_>
    800000d4:	3e900793          	li	a5,1001
    800000d8:	fff78793          	addi	a5,a5,-1
    800000dc:	fe079ee3          	bnez	a5,800000d8 <main+0x24>
    800000e0:	ff5ff06f          	j	800000d4 <main+0x20>

00000000800000e4 <execption_handle>:
    800000e4:	ff010113          	addi	sp,sp,-16
    800000e8:	00813023          	sd	s0,0(sp)
    800000ec:	00050413          	mv	s0,a0
    800000f0:	00050593          	mv	a1,a0
    800000f4:	00747413          	andi	s0,s0,7
    800000f8:	00003517          	auipc	a0,0x3
    800000fc:	c5850513          	addi	a0,a0,-936 # 80002d50 <__FUNCTION__.0+0xb8>
    80000100:	00113423          	sd	ra,8(sp)
    80000104:	5e8010ef          	jal	ra,800016ec <printf_>
    80000108:	00040e63          	beqz	s0,80000124 <execption_handle+0x40>
    8000010c:	00013403          	ld	s0,0(sp)
    80000110:	00813083          	ld	ra,8(sp)
    80000114:	00003517          	auipc	a0,0x3
    80000118:	c5450513          	addi	a0,a0,-940 # 80002d68 <__FUNCTION__.0+0xd0>
    8000011c:	01010113          	addi	sp,sp,16
    80000120:	5cc0106f          	j	800016ec <printf_>
    80000124:	00813083          	ld	ra,8(sp)
    80000128:	00013403          	ld	s0,0(sp)
    8000012c:	01010113          	addi	sp,sp,16
    80000130:	00008067          	ret

0000000080000134 <_putchar>:
    80000134:	10100793          	li	a5,257
    80000138:	01779793          	slli	a5,a5,0x17
    8000013c:	00a78023          	sb	a0,0(a5)
    80000140:	00008067          	ret

0000000080000144 <_out_buffer>:
    80000144:	00d67663          	bgeu	a2,a3,80000150 <_out_buffer+0xc>
    80000148:	00c585b3          	add	a1,a1,a2
    8000014c:	00a58023          	sb	a0,0(a1)
    80000150:	00008067          	ret

0000000080000154 <_out_null>:
    80000154:	00008067          	ret

0000000080000158 <_out_rev>:
    80000158:	fa010113          	addi	sp,sp,-96
    8000015c:	04913423          	sd	s1,72(sp)
    80000160:	05213023          	sd	s2,64(sp)
    80000164:	03313c23          	sd	s3,56(sp)
    80000168:	03413823          	sd	s4,48(sp)
    8000016c:	03513423          	sd	s5,40(sp)
    80000170:	03613023          	sd	s6,32(sp)
    80000174:	01713c23          	sd	s7,24(sp)
    80000178:	01813823          	sd	s8,16(sp)
    8000017c:	00078493          	mv	s1,a5
    80000180:	04113c23          	sd	ra,88(sp)
    80000184:	04813823          	sd	s0,80(sp)
    80000188:	01913423          	sd	s9,8(sp)
    8000018c:	01a13023          	sd	s10,0(sp)
    80000190:	0038f793          	andi	a5,a7,3
    80000194:	00050a93          	mv	s5,a0
    80000198:	00058b13          	mv	s6,a1
    8000019c:	00060913          	mv	s2,a2
    800001a0:	00068b93          	mv	s7,a3
    800001a4:	00070c13          	mv	s8,a4
    800001a8:	00080993          	mv	s3,a6
    800001ac:	00088a13          	mv	s4,a7
    800001b0:	08078663          	beqz	a5,8000023c <_out_rev+0xe4>
    800001b4:	00c48433          	add	s0,s1,a2
    800001b8:	00040513          	mv	a0,s0
    800001bc:	40940633          	sub	a2,s0,s1
    800001c0:	08049663          	bnez	s1,8000024c <_out_rev+0xf4>
    800001c4:	002a7a13          	andi	s4,s4,2
    800001c8:	000a0c63          	beqz	s4,800001e0 <_out_rev+0x88>
    800001cc:	02099993          	slli	s3,s3,0x20
    800001d0:	41240433          	sub	s0,s0,s2
    800001d4:	0209d993          	srli	s3,s3,0x20
    800001d8:	00890533          	add	a0,s2,s0
    800001dc:	09346663          	bltu	s0,s3,80000268 <_out_rev+0x110>
    800001e0:	05813083          	ld	ra,88(sp)
    800001e4:	05013403          	ld	s0,80(sp)
    800001e8:	04813483          	ld	s1,72(sp)
    800001ec:	04013903          	ld	s2,64(sp)
    800001f0:	03813983          	ld	s3,56(sp)
    800001f4:	03013a03          	ld	s4,48(sp)
    800001f8:	02813a83          	ld	s5,40(sp)
    800001fc:	02013b03          	ld	s6,32(sp)
    80000200:	01813b83          	ld	s7,24(sp)
    80000204:	01013c03          	ld	s8,16(sp)
    80000208:	00813c83          	ld	s9,8(sp)
    8000020c:	00013d03          	ld	s10,0(sp)
    80000210:	06010113          	addi	sp,sp,96
    80000214:	00008067          	ret
    80000218:	000b8693          	mv	a3,s7
    8000021c:	000b0593          	mv	a1,s6
    80000220:	02000513          	li	a0,32
    80000224:	00160d13          	addi	s10,a2,1
    80000228:	000a80e7          	jalr	s5
    8000022c:	000d0613          	mv	a2,s10
    80000230:	00cc87b3          	add	a5,s9,a2
    80000234:	fe87e2e3          	bltu	a5,s0,80000218 <_out_rev+0xc0>
    80000238:	f7dff06f          	j	800001b4 <_out_rev+0x5c>
    8000023c:	02081413          	slli	s0,a6,0x20
    80000240:	02045413          	srli	s0,s0,0x20
    80000244:	40c48cb3          	sub	s9,s1,a2
    80000248:	fe9ff06f          	j	80000230 <_out_rev+0xd8>
    8000024c:	fff48493          	addi	s1,s1,-1
    80000250:	009c07b3          	add	a5,s8,s1
    80000254:	0007c503          	lbu	a0,0(a5)
    80000258:	000b8693          	mv	a3,s7
    8000025c:	000b0593          	mv	a1,s6
    80000260:	000a80e7          	jalr	s5
    80000264:	f55ff06f          	j	800001b8 <_out_rev+0x60>
    80000268:	00050613          	mv	a2,a0
    8000026c:	000b8693          	mv	a3,s7
    80000270:	000b0593          	mv	a1,s6
    80000274:	02000513          	li	a0,32
    80000278:	000a80e7          	jalr	s5
    8000027c:	00140413          	addi	s0,s0,1
    80000280:	f59ff06f          	j	800001d8 <_out_rev+0x80>

0000000080000284 <_ntoa_long>:
    80000284:	fc010113          	addi	sp,sp,-64
    80000288:	02113c23          	sd	ra,56(sp)
    8000028c:	02813823          	sd	s0,48(sp)
    80000290:	02913423          	sd	s1,40(sp)
    80000294:	00080e13          	mv	t3,a6
    80000298:	00088e93          	mv	t4,a7
    8000029c:	04012803          	lw	a6,64(sp)
    800002a0:	04812883          	lw	a7,72(sp)
    800002a4:	00071463          	bnez	a4,800002ac <_ntoa_long+0x28>
    800002a8:	fef8f893          	andi	a7,a7,-17
    800002ac:	4008f393          	andi	t2,a7,1024
    800002b0:	00038463          	beqz	t2,800002b8 <_ntoa_long+0x34>
    800002b4:	04070c63          	beqz	a4,8000030c <_ntoa_long+0x88>
    800002b8:	0208ff13          	andi	t5,a7,32
    800002bc:	06100313          	li	t1,97
    800002c0:	000f0463          	beqz	t5,800002c8 <_ntoa_long+0x44>
    800002c4:	04100313          	li	t1,65
    800002c8:	00070f93          	mv	t6,a4
    800002cc:	00010293          	mv	t0,sp
    800002d0:	00000713          	li	a4,0
    800002d4:	00900493          	li	s1,9
    800002d8:	ff630f1b          	addiw	t5,t1,-10
    800002dc:	02000413          	li	s0,32
    800002e0:	03cff0b3          	remu	ra,t6,t3
    800002e4:	0ff0f313          	zext.b	t1,ra
    800002e8:	0614e463          	bltu	s1,ra,80000350 <_ntoa_long+0xcc>
    800002ec:	0303031b          	addiw	t1,t1,48
    800002f0:	0ff37313          	zext.b	t1,t1
    800002f4:	00628023          	sb	t1,0(t0)
    800002f8:	00170713          	addi	a4,a4,1
    800002fc:	03cfd333          	divu	t1,t6,t3
    80000300:	01cfe663          	bltu	t6,t3,8000030c <_ntoa_long+0x88>
    80000304:	00128293          	addi	t0,t0,1
    80000308:	04871063          	bne	a4,s0,80000348 <_ntoa_long+0xc4>
    8000030c:	0028ff13          	andi	t5,a7,2
    80000310:	00088313          	mv	t1,a7
    80000314:	060f1a63          	bnez	t5,80000388 <_ntoa_long+0x104>
    80000318:	0018ff13          	andi	t5,a7,1
    8000031c:	00080c63          	beqz	a6,80000334 <_ntoa_long+0xb0>
    80000320:	000f0a63          	beqz	t5,80000334 <_ntoa_long+0xb0>
    80000324:	00079663          	bnez	a5,80000330 <_ntoa_long+0xac>
    80000328:	00c37313          	andi	t1,t1,12
    8000032c:	00030463          	beqz	t1,80000334 <_ntoa_long+0xb0>
    80000330:	fff8081b          	addiw	a6,a6,-1
    80000334:	020e9f93          	slli	t6,t4,0x20
    80000338:	020fdf93          	srli	t6,t6,0x20
    8000033c:	02000313          	li	t1,32
    80000340:	03000293          	li	t0,48
    80000344:	0200006f          	j	80000364 <_ntoa_long+0xe0>
    80000348:	00030f93          	mv	t6,t1
    8000034c:	f95ff06f          	j	800002e0 <_ntoa_long+0x5c>
    80000350:	006f033b          	addw	t1,t5,t1
    80000354:	f9dff06f          	j	800002f0 <_ntoa_long+0x6c>
    80000358:	00e100b3          	add	ra,sp,a4
    8000035c:	00508023          	sb	t0,0(ra)
    80000360:	00170713          	addi	a4,a4,1
    80000364:	01f77463          	bgeu	a4,t6,8000036c <_ntoa_long+0xe8>
    80000368:	fe6718e3          	bne	a4,t1,80000358 <_ntoa_long+0xd4>
    8000036c:	02081f93          	slli	t6,a6,0x20
    80000370:	020fdf93          	srli	t6,t6,0x20
    80000374:	01f00313          	li	t1,31
    80000378:	03000293          	li	t0,48
    8000037c:	000f0663          	beqz	t5,80000388 <_ntoa_long+0x104>
    80000380:	01f77463          	bgeu	a4,t6,80000388 <_ntoa_long+0x104>
    80000384:	06e37263          	bgeu	t1,a4,800003e8 <_ntoa_long+0x164>
    80000388:	0108f313          	andi	t1,a7,16
    8000038c:	0a030c63          	beqz	t1,80000444 <_ntoa_long+0x1c0>
    80000390:	06039663          	bnez	t2,800003fc <_ntoa_long+0x178>
    80000394:	06070463          	beqz	a4,800003fc <_ntoa_long+0x178>
    80000398:	020e9e93          	slli	t4,t4,0x20
    8000039c:	020ede93          	srli	t4,t4,0x20
    800003a0:	01d70863          	beq	a4,t4,800003b0 <_ntoa_long+0x12c>
    800003a4:	02081313          	slli	t1,a6,0x20
    800003a8:	02035313          	srli	t1,t1,0x20
    800003ac:	04671863          	bne	a4,t1,800003fc <_ntoa_long+0x178>
    800003b0:	fff70313          	addi	t1,a4,-1
    800003b4:	04030263          	beqz	t1,800003f8 <_ntoa_long+0x174>
    800003b8:	01000e93          	li	t4,16
    800003bc:	ffe70713          	addi	a4,a4,-2
    800003c0:	05de0263          	beq	t3,t4,80000404 <_ntoa_long+0x180>
    800003c4:	00030713          	mv	a4,t1
    800003c8:	00200313          	li	t1,2
    800003cc:	046e1e63          	bne	t3,t1,80000428 <_ntoa_long+0x1a4>
    800003d0:	01f00313          	li	t1,31
    800003d4:	08e36863          	bltu	t1,a4,80000464 <_ntoa_long+0x1e0>
    800003d8:	02070313          	addi	t1,a4,32
    800003dc:	00230333          	add	t1,t1,sp
    800003e0:	06200e13          	li	t3,98
    800003e4:	03c0006f          	j	80000420 <_ntoa_long+0x19c>
    800003e8:	00e100b3          	add	ra,sp,a4
    800003ec:	00508023          	sb	t0,0(ra)
    800003f0:	00170713          	addi	a4,a4,1
    800003f4:	f89ff06f          	j	8000037c <_ntoa_long+0xf8>
    800003f8:	00000713          	li	a4,0
    800003fc:	01000313          	li	t1,16
    80000400:	fc6e14e3          	bne	t3,t1,800003c8 <_ntoa_long+0x144>
    80000404:	0208f313          	andi	t1,a7,32
    80000408:	06031e63          	bnez	t1,80000484 <_ntoa_long+0x200>
    8000040c:	01f00313          	li	t1,31
    80000410:	04e36a63          	bltu	t1,a4,80000464 <_ntoa_long+0x1e0>
    80000414:	02070313          	addi	t1,a4,32
    80000418:	00230333          	add	t1,t1,sp
    8000041c:	07800e13          	li	t3,120
    80000420:	ffc30023          	sb	t3,-32(t1)
    80000424:	00170713          	addi	a4,a4,1
    80000428:	01f00313          	li	t1,31
    8000042c:	02e36c63          	bltu	t1,a4,80000464 <_ntoa_long+0x1e0>
    80000430:	02070313          	addi	t1,a4,32
    80000434:	00230333          	add	t1,t1,sp
    80000438:	03000e13          	li	t3,48
    8000043c:	ffc30023          	sb	t3,-32(t1)
    80000440:	00170713          	addi	a4,a4,1
    80000444:	01f00313          	li	t1,31
    80000448:	00e36e63          	bltu	t1,a4,80000464 <_ntoa_long+0x1e0>
    8000044c:	04078863          	beqz	a5,8000049c <_ntoa_long+0x218>
    80000450:	02070793          	addi	a5,a4,32
    80000454:	002787b3          	add	a5,a5,sp
    80000458:	02d00313          	li	t1,45
    8000045c:	fe678023          	sb	t1,-32(a5)
    80000460:	00170713          	addi	a4,a4,1
    80000464:	00070793          	mv	a5,a4
    80000468:	00010713          	mv	a4,sp
    8000046c:	cedff0ef          	jal	ra,80000158 <_out_rev>
    80000470:	03813083          	ld	ra,56(sp)
    80000474:	03013403          	ld	s0,48(sp)
    80000478:	02813483          	ld	s1,40(sp)
    8000047c:	04010113          	addi	sp,sp,64
    80000480:	00008067          	ret
    80000484:	01f00313          	li	t1,31
    80000488:	fce36ee3          	bltu	t1,a4,80000464 <_ntoa_long+0x1e0>
    8000048c:	02070313          	addi	t1,a4,32
    80000490:	00230333          	add	t1,t1,sp
    80000494:	05800e13          	li	t3,88
    80000498:	f89ff06f          	j	80000420 <_ntoa_long+0x19c>
    8000049c:	0048f793          	andi	a5,a7,4
    800004a0:	00078a63          	beqz	a5,800004b4 <_ntoa_long+0x230>
    800004a4:	02070793          	addi	a5,a4,32
    800004a8:	002787b3          	add	a5,a5,sp
    800004ac:	02b00313          	li	t1,43
    800004b0:	fadff06f          	j	8000045c <_ntoa_long+0x1d8>
    800004b4:	0088f793          	andi	a5,a7,8
    800004b8:	fa0786e3          	beqz	a5,80000464 <_ntoa_long+0x1e0>
    800004bc:	02070793          	addi	a5,a4,32
    800004c0:	002787b3          	add	a5,a5,sp
    800004c4:	02000313          	li	t1,32
    800004c8:	f95ff06f          	j	8000045c <_ntoa_long+0x1d8>

00000000800004cc <_etoa>:
    800004cc:	f6010113          	addi	sp,sp,-160
    800004d0:	05713c23          	sd	s7,88(sp)
    800004d4:	05813823          	sd	s8,80(sp)
    800004d8:	00050b93          	mv	s7,a0
    800004dc:	00058c13          	mv	s8,a1
    800004e0:	00070513          	mv	a0,a4
    800004e4:	00070593          	mv	a1,a4
    800004e8:	08913423          	sd	s1,136(sp)
    800004ec:	09213023          	sd	s2,128(sp)
    800004f0:	07313c23          	sd	s3,120(sp)
    800004f4:	07613023          	sd	s6,96(sp)
    800004f8:	05913423          	sd	s9,72(sp)
    800004fc:	08113c23          	sd	ra,152(sp)
    80000500:	08813823          	sd	s0,144(sp)
    80000504:	07413823          	sd	s4,112(sp)
    80000508:	07513423          	sd	s5,104(sp)
    8000050c:	05a13023          	sd	s10,64(sp)
    80000510:	03b13c23          	sd	s11,56(sp)
    80000514:	00c13823          	sd	a2,16(sp)
    80000518:	00068c93          	mv	s9,a3
    8000051c:	00070993          	mv	s3,a4
    80000520:	00078913          	mv	s2,a5
    80000524:	00080b13          	mv	s6,a6
    80000528:	00088493          	mv	s1,a7
    8000052c:	30d010ef          	jal	ra,80002038 <__eqdf2>
    80000530:	02051663          	bnez	a0,8000055c <_etoa+0x90>
    80000534:	00002597          	auipc	a1,0x2
    80000538:	76c5b583          	ld	a1,1900(a1) # 80002ca0 <__FUNCTION__.0+0x8>
    8000053c:	00098513          	mv	a0,s3
    80000540:	37d010ef          	jal	ra,800020bc <__gedf2>
    80000544:	00a04c63          	bgtz	a0,8000055c <_etoa+0x90>
    80000548:	00002597          	auipc	a1,0x2
    8000054c:	7605b583          	ld	a1,1888(a1) # 80002ca8 <__FUNCTION__.0+0x10>
    80000550:	00098513          	mv	a0,s3
    80000554:	421010ef          	jal	ra,80002174 <__ledf2>
    80000558:	06055063          	bgez	a0,800005b8 <_etoa+0xec>
    8000055c:	09013403          	ld	s0,144(sp)
    80000560:	01013603          	ld	a2,16(sp)
    80000564:	09813083          	ld	ra,152(sp)
    80000568:	07013a03          	ld	s4,112(sp)
    8000056c:	06813a83          	ld	s5,104(sp)
    80000570:	04013d03          	ld	s10,64(sp)
    80000574:	03813d83          	ld	s11,56(sp)
    80000578:	00048893          	mv	a7,s1
    8000057c:	000b0813          	mv	a6,s6
    80000580:	08813483          	ld	s1,136(sp)
    80000584:	06013b03          	ld	s6,96(sp)
    80000588:	00090793          	mv	a5,s2
    8000058c:	00098713          	mv	a4,s3
    80000590:	08013903          	ld	s2,128(sp)
    80000594:	07813983          	ld	s3,120(sp)
    80000598:	000c8693          	mv	a3,s9
    8000059c:	000c0593          	mv	a1,s8
    800005a0:	04813c83          	ld	s9,72(sp)
    800005a4:	05013c03          	ld	s8,80(sp)
    800005a8:	000b8513          	mv	a0,s7
    800005ac:	05813b83          	ld	s7,88(sp)
    800005b0:	0a010113          	addi	sp,sp,160
    800005b4:	3c00006f          	j	80000974 <_ftoa>
    800005b8:	00000593          	li	a1,0
    800005bc:	00098513          	mv	a0,s3
    800005c0:	3b5010ef          	jal	ra,80002174 <__ledf2>
    800005c4:	00098d13          	mv	s10,s3
    800005c8:	00055863          	bgez	a0,800005d8 <_etoa+0x10c>
    800005cc:	fff00713          	li	a4,-1
    800005d0:	03f71713          	slli	a4,a4,0x3f
    800005d4:	00e9cd33          	xor	s10,s3,a4
    800005d8:	4004fd93          	andi	s11,s1,1024
    800005dc:	000d9463          	bnez	s11,800005e4 <_etoa+0x118>
    800005e0:	00600913          	li	s2,6
    800005e4:	034d5513          	srli	a0,s10,0x34
    800005e8:	7ff57513          	andi	a0,a0,2047
    800005ec:	c015051b          	addiw	a0,a0,-1023
    800005f0:	4a4020ef          	jal	ra,80002a94 <__floatsidf>
    800005f4:	00002597          	auipc	a1,0x2
    800005f8:	6bc5b583          	ld	a1,1724(a1) # 80002cb0 <__FUNCTION__.0+0x18>
    800005fc:	431010ef          	jal	ra,8000222c <__muldf3>
    80000600:	00002597          	auipc	a1,0x2
    80000604:	6b85b583          	ld	a1,1720(a1) # 80002cb8 <__FUNCTION__.0+0x20>
    80000608:	264010ef          	jal	ra,8000186c <__adddf3>
    8000060c:	00050413          	mv	s0,a0
    80000610:	3ff00793          	li	a5,1023
    80000614:	00cd1513          	slli	a0,s10,0xc
    80000618:	03479793          	slli	a5,a5,0x34
    8000061c:	00c55513          	srli	a0,a0,0xc
    80000620:	00f56533          	or	a0,a0,a5
    80000624:	00002597          	auipc	a1,0x2
    80000628:	69c5b583          	ld	a1,1692(a1) # 80002cc0 <__FUNCTION__.0+0x28>
    8000062c:	775010ef          	jal	ra,800025a0 <__subdf3>
    80000630:	00002597          	auipc	a1,0x2
    80000634:	6985b583          	ld	a1,1688(a1) # 80002cc8 <__FUNCTION__.0+0x30>
    80000638:	3f5010ef          	jal	ra,8000222c <__muldf3>
    8000063c:	00050593          	mv	a1,a0
    80000640:	00040513          	mv	a0,s0
    80000644:	228010ef          	jal	ra,8000186c <__adddf3>
    80000648:	3e8020ef          	jal	ra,80002a30 <__fixdfsi>
    8000064c:	00050a1b          	sext.w	s4,a0
    80000650:	000a0513          	mv	a0,s4
    80000654:	03412623          	sw	s4,44(sp)
    80000658:	43c020ef          	jal	ra,80002a94 <__floatsidf>
    8000065c:	00002597          	auipc	a1,0x2
    80000660:	6745b583          	ld	a1,1652(a1) # 80002cd0 <__FUNCTION__.0+0x38>
    80000664:	00050413          	mv	s0,a0
    80000668:	3c5010ef          	jal	ra,8000222c <__muldf3>
    8000066c:	00002597          	auipc	a1,0x2
    80000670:	66c5b583          	ld	a1,1644(a1) # 80002cd8 <__FUNCTION__.0+0x40>
    80000674:	1f8010ef          	jal	ra,8000186c <__adddf3>
    80000678:	3b8020ef          	jal	ra,80002a30 <__fixdfsi>
    8000067c:	0005079b          	sext.w	a5,a0
    80000680:	00002597          	auipc	a1,0x2
    80000684:	6605b583          	ld	a1,1632(a1) # 80002ce0 <__FUNCTION__.0+0x48>
    80000688:	00040513          	mv	a0,s0
    8000068c:	00078a93          	mv	s5,a5
    80000690:	00f13c23          	sd	a5,24(sp)
    80000694:	399010ef          	jal	ra,8000222c <__muldf3>
    80000698:	01813783          	ld	a5,24(sp)
    8000069c:	00050413          	mv	s0,a0
    800006a0:	00078513          	mv	a0,a5
    800006a4:	3f0020ef          	jal	ra,80002a94 <__floatsidf>
    800006a8:	00002597          	auipc	a1,0x2
    800006ac:	6405b583          	ld	a1,1600(a1) # 80002ce8 <__FUNCTION__.0+0x50>
    800006b0:	37d010ef          	jal	ra,8000222c <__muldf3>
    800006b4:	00050593          	mv	a1,a0
    800006b8:	00040513          	mv	a0,s0
    800006bc:	6e5010ef          	jal	ra,800025a0 <__subdf3>
    800006c0:	00050593          	mv	a1,a0
    800006c4:	00a13c23          	sd	a0,24(sp)
    800006c8:	365010ef          	jal	ra,8000222c <__muldf3>
    800006cc:	01813783          	ld	a5,24(sp)
    800006d0:	00050413          	mv	s0,a0
    800006d4:	00078593          	mv	a1,a5
    800006d8:	00078513          	mv	a0,a5
    800006dc:	02f13023          	sd	a5,32(sp)
    800006e0:	18c010ef          	jal	ra,8000186c <__adddf3>
    800006e4:	00002597          	auipc	a1,0x2
    800006e8:	60c5b583          	ld	a1,1548(a1) # 80002cf0 <__FUNCTION__.0+0x58>
    800006ec:	00a13c23          	sd	a0,24(sp)
    800006f0:	00040513          	mv	a0,s0
    800006f4:	5f0010ef          	jal	ra,80001ce4 <__divdf3>
    800006f8:	00002597          	auipc	a1,0x2
    800006fc:	6005b583          	ld	a1,1536(a1) # 80002cf8 <__FUNCTION__.0+0x60>
    80000700:	16c010ef          	jal	ra,8000186c <__adddf3>
    80000704:	00050593          	mv	a1,a0
    80000708:	00040513          	mv	a0,s0
    8000070c:	5d8010ef          	jal	ra,80001ce4 <__divdf3>
    80000710:	00002597          	auipc	a1,0x2
    80000714:	5f05b583          	ld	a1,1520(a1) # 80002d00 <__FUNCTION__.0+0x68>
    80000718:	154010ef          	jal	ra,8000186c <__adddf3>
    8000071c:	00050593          	mv	a1,a0
    80000720:	00040513          	mv	a0,s0
    80000724:	5c0010ef          	jal	ra,80001ce4 <__divdf3>
    80000728:	02013783          	ld	a5,32(sp)
    8000072c:	00050413          	mv	s0,a0
    80000730:	00002517          	auipc	a0,0x2
    80000734:	5d853503          	ld	a0,1496(a0) # 80002d08 <__FUNCTION__.0+0x70>
    80000738:	00078593          	mv	a1,a5
    8000073c:	665010ef          	jal	ra,800025a0 <__subdf3>
    80000740:	00050593          	mv	a1,a0
    80000744:	00040513          	mv	a0,s0
    80000748:	124010ef          	jal	ra,8000186c <__adddf3>
    8000074c:	01813603          	ld	a2,24(sp)
    80000750:	00050593          	mv	a1,a0
    80000754:	00060513          	mv	a0,a2
    80000758:	58c010ef          	jal	ra,80001ce4 <__divdf3>
    8000075c:	00002597          	auipc	a1,0x2
    80000760:	5b45b583          	ld	a1,1460(a1) # 80002d10 <__FUNCTION__.0+0x78>
    80000764:	108010ef          	jal	ra,8000186c <__adddf3>
    80000768:	3ffa859b          	addiw	a1,s5,1023
    8000076c:	03459593          	slli	a1,a1,0x34
    80000770:	2bd010ef          	jal	ra,8000222c <__muldf3>
    80000774:	000d0593          	mv	a1,s10
    80000778:	00050a93          	mv	s5,a0
    8000077c:	141010ef          	jal	ra,800020bc <__gedf2>
    80000780:	00a05e63          	blez	a0,8000079c <_etoa+0x2d0>
    80000784:	000a8513          	mv	a0,s5
    80000788:	00002597          	auipc	a1,0x2
    8000078c:	5705b583          	ld	a1,1392(a1) # 80002cf8 <__FUNCTION__.0+0x60>
    80000790:	554010ef          	jal	ra,80001ce4 <__divdf3>
    80000794:	fffa0a1b          	addiw	s4,s4,-1
    80000798:	00050a93          	mv	s5,a0
    8000079c:	0c600793          	li	a5,198
    800007a0:	063a041b          	addiw	s0,s4,99
    800007a4:	0087b433          	sltu	s0,a5,s0
    800007a8:	00b4d793          	srli	a5,s1,0xb
    800007ac:	0017f793          	andi	a5,a5,1
    800007b0:	00440413          	addi	s0,s0,4
    800007b4:	04078663          	beqz	a5,80000800 <_etoa+0x334>
    800007b8:	00002597          	auipc	a1,0x2
    800007bc:	5605b583          	ld	a1,1376(a1) # 80002d18 <__FUNCTION__.0+0x80>
    800007c0:	000d0513          	mv	a0,s10
    800007c4:	0f9010ef          	jal	ra,800020bc <__gedf2>
    800007c8:	18054263          	bltz	a0,8000094c <_etoa+0x480>
    800007cc:	00002597          	auipc	a1,0x2
    800007d0:	5545b583          	ld	a1,1364(a1) # 80002d20 <__FUNCTION__.0+0x88>
    800007d4:	000d0513          	mv	a0,s10
    800007d8:	19d010ef          	jal	ra,80002174 <__ledf2>
    800007dc:	16055863          	bgez	a0,8000094c <_etoa+0x480>
    800007e0:	0009079b          	sext.w	a5,s2
    800007e4:	00000913          	li	s2,0
    800007e8:	00fa5663          	bge	s4,a5,800007f4 <_etoa+0x328>
    800007ec:	414787bb          	subw	a5,a5,s4
    800007f0:	fff7891b          	addiw	s2,a5,-1
    800007f4:	4004e493          	ori	s1,s1,1024
    800007f8:	00000413          	li	s0,0
    800007fc:	00000a13          	li	s4,0
    80000800:	00000813          	li	a6,0
    80000804:	01647463          	bgeu	s0,s6,8000080c <_etoa+0x340>
    80000808:	408b083b          	subw	a6,s6,s0
    8000080c:	0024fd93          	andi	s11,s1,2
    80000810:	000d8663          	beqz	s11,8000081c <_etoa+0x350>
    80000814:	00040463          	beqz	s0,8000081c <_etoa+0x350>
    80000818:	00000813          	li	a6,0
    8000081c:	000a0e63          	beqz	s4,80000838 <_etoa+0x36c>
    80000820:	000d0513          	mv	a0,s10
    80000824:	000a8593          	mv	a1,s5
    80000828:	01013c23          	sd	a6,24(sp)
    8000082c:	4b8010ef          	jal	ra,80001ce4 <__divdf3>
    80000830:	01813803          	ld	a6,24(sp)
    80000834:	00050d13          	mv	s10,a0
    80000838:	00000593          	li	a1,0
    8000083c:	00098513          	mv	a0,s3
    80000840:	01013c23          	sd	a6,24(sp)
    80000844:	131010ef          	jal	ra,80002174 <__ledf2>
    80000848:	01813803          	ld	a6,24(sp)
    8000084c:	00055863          	bgez	a0,8000085c <_etoa+0x390>
    80000850:	fff00793          	li	a5,-1
    80000854:	03f79793          	slli	a5,a5,0x3f
    80000858:	01a7cd33          	xor	s10,a5,s10
    8000085c:	01013603          	ld	a2,16(sp)
    80000860:	fffff8b7          	lui	a7,0xfffff
    80000864:	7ff88893          	addi	a7,a7,2047 # fffffffffffff7ff <__stack_end+0xffffffff7f9ff7ff>
    80000868:	0114f8b3          	and	a7,s1,a7
    8000086c:	00090793          	mv	a5,s2
    80000870:	000d0713          	mv	a4,s10
    80000874:	000c8693          	mv	a3,s9
    80000878:	000c0593          	mv	a1,s8
    8000087c:	000b8513          	mv	a0,s7
    80000880:	0f4000ef          	jal	ra,80000974 <_ftoa>
    80000884:	00050613          	mv	a2,a0
    80000888:	08040263          	beqz	s0,8000090c <_etoa+0x440>
    8000088c:	0204f493          	andi	s1,s1,32
    80000890:	04500513          	li	a0,69
    80000894:	00049463          	bnez	s1,8000089c <_etoa+0x3d0>
    80000898:	06500513          	li	a0,101
    8000089c:	000c8693          	mv	a3,s9
    800008a0:	000c0593          	mv	a1,s8
    800008a4:	00160493          	addi	s1,a2,1
    800008a8:	000b80e7          	jalr	s7
    800008ac:	41fa571b          	sraiw	a4,s4,0x1f
    800008b0:	00ea46b3          	xor	a3,s4,a4
    800008b4:	00500793          	li	a5,5
    800008b8:	fff4041b          	addiw	s0,s0,-1
    800008bc:	00f13423          	sd	a5,8(sp)
    800008c0:	40e6873b          	subw	a4,a3,a4
    800008c4:	00048613          	mv	a2,s1
    800008c8:	00813023          	sd	s0,0(sp)
    800008cc:	00000893          	li	a7,0
    800008d0:	00a00813          	li	a6,10
    800008d4:	01fa579b          	srliw	a5,s4,0x1f
    800008d8:	000c8693          	mv	a3,s9
    800008dc:	000c0593          	mv	a1,s8
    800008e0:	000b8513          	mv	a0,s7
    800008e4:	9a1ff0ef          	jal	ra,80000284 <_ntoa_long>
    800008e8:	00050613          	mv	a2,a0
    800008ec:	020d8063          	beqz	s11,8000090c <_etoa+0x440>
    800008f0:	01013783          	ld	a5,16(sp)
    800008f4:	020b1b13          	slli	s6,s6,0x20
    800008f8:	020b5b13          	srli	s6,s6,0x20
    800008fc:	40f50433          	sub	s0,a0,a5
    80000900:	01013783          	ld	a5,16(sp)
    80000904:	00878633          	add	a2,a5,s0
    80000908:	05646a63          	bltu	s0,s6,8000095c <_etoa+0x490>
    8000090c:	09813083          	ld	ra,152(sp)
    80000910:	09013403          	ld	s0,144(sp)
    80000914:	08813483          	ld	s1,136(sp)
    80000918:	08013903          	ld	s2,128(sp)
    8000091c:	07813983          	ld	s3,120(sp)
    80000920:	07013a03          	ld	s4,112(sp)
    80000924:	06813a83          	ld	s5,104(sp)
    80000928:	06013b03          	ld	s6,96(sp)
    8000092c:	05813b83          	ld	s7,88(sp)
    80000930:	05013c03          	ld	s8,80(sp)
    80000934:	04813c83          	ld	s9,72(sp)
    80000938:	04013d03          	ld	s10,64(sp)
    8000093c:	03813d83          	ld	s11,56(sp)
    80000940:	00060513          	mv	a0,a2
    80000944:	0a010113          	addi	sp,sp,160
    80000948:	00008067          	ret
    8000094c:	ea090ae3          	beqz	s2,80000800 <_etoa+0x334>
    80000950:	ea0d88e3          	beqz	s11,80000800 <_etoa+0x334>
    80000954:	fff9091b          	addiw	s2,s2,-1
    80000958:	ea9ff06f          	j	80000800 <_etoa+0x334>
    8000095c:	000c8693          	mv	a3,s9
    80000960:	000c0593          	mv	a1,s8
    80000964:	02000513          	li	a0,32
    80000968:	000b80e7          	jalr	s7
    8000096c:	00140413          	addi	s0,s0,1
    80000970:	f91ff06f          	j	80000900 <_etoa+0x434>

0000000080000974 <_ftoa>:
    80000974:	f5010113          	addi	sp,sp,-176
    80000978:	09413023          	sd	s4,128(sp)
    8000097c:	07513c23          	sd	s5,120(sp)
    80000980:	00050a13          	mv	s4,a0
    80000984:	00058a93          	mv	s5,a1
    80000988:	00070513          	mv	a0,a4
    8000098c:	00070593          	mv	a1,a4
    80000990:	0a813023          	sd	s0,160(sp)
    80000994:	08913c23          	sd	s1,152(sp)
    80000998:	09213823          	sd	s2,144(sp)
    8000099c:	09313423          	sd	s3,136(sp)
    800009a0:	07613823          	sd	s6,112(sp)
    800009a4:	07713423          	sd	s7,104(sp)
    800009a8:	0a113423          	sd	ra,168(sp)
    800009ac:	07813023          	sd	s8,96(sp)
    800009b0:	05913c23          	sd	s9,88(sp)
    800009b4:	05a13823          	sd	s10,80(sp)
    800009b8:	05b13423          	sd	s11,72(sp)
    800009bc:	00060b13          	mv	s6,a2
    800009c0:	00068b93          	mv	s7,a3
    800009c4:	00070413          	mv	s0,a4
    800009c8:	00078493          	mv	s1,a5
    800009cc:	00080993          	mv	s3,a6
    800009d0:	00088913          	mv	s2,a7
    800009d4:	664010ef          	jal	ra,80002038 <__eqdf2>
    800009d8:	06050263          	beqz	a0,80000a3c <_ftoa+0xc8>
    800009dc:	00090893          	mv	a7,s2
    800009e0:	00098813          	mv	a6,s3
    800009e4:	00300793          	li	a5,3
    800009e8:	00002717          	auipc	a4,0x2
    800009ec:	3a070713          	addi	a4,a4,928 # 80002d88 <__FUNCTION__.0+0xf0>
    800009f0:	0a013403          	ld	s0,160(sp)
    800009f4:	0a813083          	ld	ra,168(sp)
    800009f8:	09813483          	ld	s1,152(sp)
    800009fc:	09013903          	ld	s2,144(sp)
    80000a00:	08813983          	ld	s3,136(sp)
    80000a04:	06013c03          	ld	s8,96(sp)
    80000a08:	05813c83          	ld	s9,88(sp)
    80000a0c:	05013d03          	ld	s10,80(sp)
    80000a10:	04813d83          	ld	s11,72(sp)
    80000a14:	000b8693          	mv	a3,s7
    80000a18:	000b0613          	mv	a2,s6
    80000a1c:	06813b83          	ld	s7,104(sp)
    80000a20:	07013b03          	ld	s6,112(sp)
    80000a24:	000a8593          	mv	a1,s5
    80000a28:	000a0513          	mv	a0,s4
    80000a2c:	07813a83          	ld	s5,120(sp)
    80000a30:	08013a03          	ld	s4,128(sp)
    80000a34:	0b010113          	addi	sp,sp,176
    80000a38:	f20ff06f          	j	80000158 <_out_rev>
    80000a3c:	00002597          	auipc	a1,0x2
    80000a40:	26c5b583          	ld	a1,620(a1) # 80002ca8 <__FUNCTION__.0+0x10>
    80000a44:	00040513          	mv	a0,s0
    80000a48:	72c010ef          	jal	ra,80002174 <__ledf2>
    80000a4c:	00055e63          	bgez	a0,80000a68 <_ftoa+0xf4>
    80000a50:	00090893          	mv	a7,s2
    80000a54:	00098813          	mv	a6,s3
    80000a58:	00400793          	li	a5,4
    80000a5c:	00002717          	auipc	a4,0x2
    80000a60:	33470713          	addi	a4,a4,820 # 80002d90 <__FUNCTION__.0+0xf8>
    80000a64:	f8dff06f          	j	800009f0 <_ftoa+0x7c>
    80000a68:	00002597          	auipc	a1,0x2
    80000a6c:	2385b583          	ld	a1,568(a1) # 80002ca0 <__FUNCTION__.0+0x8>
    80000a70:	00040513          	mv	a0,s0
    80000a74:	648010ef          	jal	ra,800020bc <__gedf2>
    80000a78:	02a05a63          	blez	a0,80000aac <_ftoa+0x138>
    80000a7c:	00497793          	andi	a5,s2,4
    80000a80:	00078e63          	beqz	a5,80000a9c <_ftoa+0x128>
    80000a84:	00002717          	auipc	a4,0x2
    80000a88:	2f470713          	addi	a4,a4,756 # 80002d78 <__FUNCTION__.0+0xe0>
    80000a8c:	00400793          	li	a5,4
    80000a90:	00090893          	mv	a7,s2
    80000a94:	00098813          	mv	a6,s3
    80000a98:	f59ff06f          	j	800009f0 <_ftoa+0x7c>
    80000a9c:	00002717          	auipc	a4,0x2
    80000aa0:	2e470713          	addi	a4,a4,740 # 80002d80 <__FUNCTION__.0+0xe8>
    80000aa4:	00300793          	li	a5,3
    80000aa8:	fe9ff06f          	j	80000a90 <_ftoa+0x11c>
    80000aac:	00002597          	auipc	a1,0x2
    80000ab0:	27c5b583          	ld	a1,636(a1) # 80002d28 <__FUNCTION__.0+0x90>
    80000ab4:	00040513          	mv	a0,s0
    80000ab8:	604010ef          	jal	ra,800020bc <__gedf2>
    80000abc:	00a04c63          	bgtz	a0,80000ad4 <_ftoa+0x160>
    80000ac0:	00002597          	auipc	a1,0x2
    80000ac4:	2705b583          	ld	a1,624(a1) # 80002d30 <__FUNCTION__.0+0x98>
    80000ac8:	00040513          	mv	a0,s0
    80000acc:	6a8010ef          	jal	ra,80002174 <__ledf2>
    80000ad0:	06055063          	bgez	a0,80000b30 <_ftoa+0x1bc>
    80000ad4:	00040713          	mv	a4,s0
    80000ad8:	0a013403          	ld	s0,160(sp)
    80000adc:	0a813083          	ld	ra,168(sp)
    80000ae0:	06013c03          	ld	s8,96(sp)
    80000ae4:	05813c83          	ld	s9,88(sp)
    80000ae8:	05013d03          	ld	s10,80(sp)
    80000aec:	04813d83          	ld	s11,72(sp)
    80000af0:	00090893          	mv	a7,s2
    80000af4:	00098813          	mv	a6,s3
    80000af8:	09013903          	ld	s2,144(sp)
    80000afc:	08813983          	ld	s3,136(sp)
    80000b00:	00048793          	mv	a5,s1
    80000b04:	000b8693          	mv	a3,s7
    80000b08:	09813483          	ld	s1,152(sp)
    80000b0c:	06813b83          	ld	s7,104(sp)
    80000b10:	000b0613          	mv	a2,s6
    80000b14:	000a8593          	mv	a1,s5
    80000b18:	07013b03          	ld	s6,112(sp)
    80000b1c:	07813a83          	ld	s5,120(sp)
    80000b20:	000a0513          	mv	a0,s4
    80000b24:	08013a03          	ld	s4,128(sp)
    80000b28:	0b010113          	addi	sp,sp,176
    80000b2c:	9a1ff06f          	j	800004cc <_etoa>
    80000b30:	00000593          	li	a1,0
    80000b34:	00040513          	mv	a0,s0
    80000b38:	63c010ef          	jal	ra,80002174 <__ledf2>
    80000b3c:	12055a63          	bgez	a0,80000c70 <_ftoa+0x2fc>
    80000b40:	00040593          	mv	a1,s0
    80000b44:	00000513          	li	a0,0
    80000b48:	259010ef          	jal	ra,800025a0 <__subdf3>
    80000b4c:	00100793          	li	a5,1
    80000b50:	00050413          	mv	s0,a0
    80000b54:	00f13023          	sd	a5,0(sp)
    80000b58:	40097793          	andi	a5,s2,1024
    80000b5c:	10078e63          	beqz	a5,80000c78 <_ftoa+0x304>
    80000b60:	00000c93          	li	s9,0
    80000b64:	00900713          	li	a4,9
    80000b68:	03000693          	li	a3,48
    80000b6c:	02000613          	li	a2,32
    80000b70:	00977e63          	bgeu	a4,s1,80000b8c <_ftoa+0x218>
    80000b74:	020c8793          	addi	a5,s9,32
    80000b78:	002785b3          	add	a1,a5,sp
    80000b7c:	00d58023          	sb	a3,0(a1)
    80000b80:	001c8c93          	addi	s9,s9,1
    80000b84:	fff4849b          	addiw	s1,s1,-1
    80000b88:	fecc94e3          	bne	s9,a2,80000b70 <_ftoa+0x1fc>
    80000b8c:	00040513          	mv	a0,s0
    80000b90:	6a1010ef          	jal	ra,80002a30 <__fixdfsi>
    80000b94:	02049713          	slli	a4,s1,0x20
    80000b98:	01d75613          	srli	a2,a4,0x1d
    80000b9c:	00002717          	auipc	a4,0x2
    80000ba0:	23c70713          	addi	a4,a4,572 # 80002dd8 <pow10.0>
    80000ba4:	00c70733          	add	a4,a4,a2
    80000ba8:	00073783          	ld	a5,0(a4)
    80000bac:	00050d9b          	sext.w	s11,a0
    80000bb0:	00a12a23          	sw	a0,20(sp)
    80000bb4:	000d8513          	mv	a0,s11
    80000bb8:	00f13423          	sd	a5,8(sp)
    80000bbc:	6d9010ef          	jal	ra,80002a94 <__floatsidf>
    80000bc0:	00050593          	mv	a1,a0
    80000bc4:	00040513          	mv	a0,s0
    80000bc8:	1d9010ef          	jal	ra,800025a0 <__subdf3>
    80000bcc:	00813583          	ld	a1,8(sp)
    80000bd0:	65c010ef          	jal	ra,8000222c <__muldf3>
    80000bd4:	00050c13          	mv	s8,a0
    80000bd8:	73d010ef          	jal	ra,80002b14 <__fixunsdfdi>
    80000bdc:	00050d13          	mv	s10,a0
    80000be0:	7a1010ef          	jal	ra,80002b80 <__floatundidf>
    80000be4:	00050593          	mv	a1,a0
    80000be8:	000c0513          	mv	a0,s8
    80000bec:	1b5010ef          	jal	ra,800025a0 <__subdf3>
    80000bf0:	00002c17          	auipc	s8,0x2
    80000bf4:	0e8c3c03          	ld	s8,232(s8) # 80002cd8 <__FUNCTION__.0+0x40>
    80000bf8:	000c0593          	mv	a1,s8
    80000bfc:	00a13c23          	sd	a0,24(sp)
    80000c00:	4bc010ef          	jal	ra,800020bc <__gedf2>
    80000c04:	01813603          	ld	a2,24(sp)
    80000c08:	06a05c63          	blez	a0,80000c80 <_ftoa+0x30c>
    80000c0c:	001d0d13          	addi	s10,s10,1
    80000c10:	000d0513          	mv	a0,s10
    80000c14:	76d010ef          	jal	ra,80002b80 <__floatundidf>
    80000c18:	00050593          	mv	a1,a0
    80000c1c:	00813503          	ld	a0,8(sp)
    80000c20:	554010ef          	jal	ra,80002174 <__ledf2>
    80000c24:	00a04663          	bgtz	a0,80000c30 <_ftoa+0x2bc>
    80000c28:	001d8d9b          	addiw	s11,s11,1
    80000c2c:	00000d13          	li	s10,0
    80000c30:	06048a63          	beqz	s1,80000ca4 <_ftoa+0x330>
    80000c34:	02000513          	li	a0,32
    80000c38:	00a00593          	li	a1,10
    80000c3c:	00900813          	li	a6,9
    80000c40:	0aac8263          	beq	s9,a0,80000ce4 <_ftoa+0x370>
    80000c44:	02bd7633          	remu	a2,s10,a1
    80000c48:	001c8c93          	addi	s9,s9,1
    80000c4c:	020c8793          	addi	a5,s9,32
    80000c50:	002788b3          	add	a7,a5,sp
    80000c54:	fff4849b          	addiw	s1,s1,-1
    80000c58:	0306061b          	addiw	a2,a2,48
    80000c5c:	fec88fa3          	sb	a2,-1(a7)
    80000c60:	02bd5633          	divu	a2,s10,a1
    80000c64:	13a87063          	bgeu	a6,s10,80000d84 <_ftoa+0x410>
    80000c68:	00060d13          	mv	s10,a2
    80000c6c:	fd5ff06f          	j	80000c40 <_ftoa+0x2cc>
    80000c70:	00013023          	sd	zero,0(sp)
    80000c74:	ee5ff06f          	j	80000b58 <_ftoa+0x1e4>
    80000c78:	00600493          	li	s1,6
    80000c7c:	ee5ff06f          	j	80000b60 <_ftoa+0x1ec>
    80000c80:	000c0593          	mv	a1,s8
    80000c84:	00060513          	mv	a0,a2
    80000c88:	4ec010ef          	jal	ra,80002174 <__ledf2>
    80000c8c:	fa0542e3          	bltz	a0,80000c30 <_ftoa+0x2bc>
    80000c90:	000d0663          	beqz	s10,80000c9c <_ftoa+0x328>
    80000c94:	001d7613          	andi	a2,s10,1
    80000c98:	f8060ce3          	beqz	a2,80000c30 <_ftoa+0x2bc>
    80000c9c:	001d0d13          	addi	s10,s10,1
    80000ca0:	f91ff06f          	j	80000c30 <_ftoa+0x2bc>
    80000ca4:	000d8513          	mv	a0,s11
    80000ca8:	5ed010ef          	jal	ra,80002a94 <__floatsidf>
    80000cac:	00050593          	mv	a1,a0
    80000cb0:	00040513          	mv	a0,s0
    80000cb4:	0ed010ef          	jal	ra,800025a0 <__subdf3>
    80000cb8:	000c0593          	mv	a1,s8
    80000cbc:	00050413          	mv	s0,a0
    80000cc0:	4b4010ef          	jal	ra,80002174 <__ledf2>
    80000cc4:	00055a63          	bgez	a0,80000cd8 <_ftoa+0x364>
    80000cc8:	000c0593          	mv	a1,s8
    80000ccc:	00040513          	mv	a0,s0
    80000cd0:	3ec010ef          	jal	ra,800020bc <__gedf2>
    80000cd4:	00a05863          	blez	a0,80000ce4 <_ftoa+0x370>
    80000cd8:	001df713          	andi	a4,s11,1
    80000cdc:	00070463          	beqz	a4,80000ce4 <_ftoa+0x370>
    80000ce0:	001d8d9b          	addiw	s11,s11,1
    80000ce4:	02000593          	li	a1,32
    80000ce8:	00a00613          	li	a2,10
    80000cec:	02bc8263          	beq	s9,a1,80000d10 <_ftoa+0x39c>
    80000cf0:	02cde73b          	remw	a4,s11,a2
    80000cf4:	001c8c93          	addi	s9,s9,1
    80000cf8:	020c8793          	addi	a5,s9,32
    80000cfc:	00278533          	add	a0,a5,sp
    80000d00:	02cdcdbb          	divw	s11,s11,a2
    80000d04:	0307071b          	addiw	a4,a4,48
    80000d08:	fee50fa3          	sb	a4,-1(a0)
    80000d0c:	fe0d90e3          	bnez	s11,80000cec <_ftoa+0x378>
    80000d10:	00397713          	andi	a4,s2,3
    80000d14:	00100693          	li	a3,1
    80000d18:	10d71063          	bne	a4,a3,80000e18 <_ftoa+0x4a4>
    80000d1c:	0e098e63          	beqz	s3,80000e18 <_ftoa+0x4a4>
    80000d20:	00013783          	ld	a5,0(sp)
    80000d24:	00079663          	bnez	a5,80000d30 <_ftoa+0x3bc>
    80000d28:	00c97713          	andi	a4,s2,12
    80000d2c:	00070463          	beqz	a4,80000d34 <_ftoa+0x3c0>
    80000d30:	fff9899b          	addiw	s3,s3,-1
    80000d34:	02099693          	slli	a3,s3,0x20
    80000d38:	0206d693          	srli	a3,a3,0x20
    80000d3c:	02000713          	li	a4,32
    80000d40:	03000613          	li	a2,48
    80000d44:	06c0006f          	j	80000db0 <_ftoa+0x43c>
    80000d48:	02070713          	addi	a4,a4,32
    80000d4c:	00270733          	add	a4,a4,sp
    80000d50:	00a70023          	sb	a0,0(a4)
    80000d54:	00078713          	mv	a4,a5
    80000d58:	04b70063          	beq	a4,a1,80000d98 <_ftoa+0x424>
    80000d5c:	0007061b          	sext.w	a2,a4
    80000d60:	00170793          	addi	a5,a4,1
    80000d64:	fec492e3          	bne	s1,a2,80000d48 <_ftoa+0x3d4>
    80000d68:	02070713          	addi	a4,a4,32
    80000d6c:	02010693          	addi	a3,sp,32
    80000d70:	00d70733          	add	a4,a4,a3
    80000d74:	02e00613          	li	a2,46
    80000d78:	fec70023          	sb	a2,-32(a4)
    80000d7c:	00078c93          	mv	s9,a5
    80000d80:	f65ff06f          	j	80000ce4 <_ftoa+0x370>
    80000d84:	000c8713          	mv	a4,s9
    80000d88:	02000593          	li	a1,32
    80000d8c:	009c84bb          	addw	s1,s9,s1
    80000d90:	03000513          	li	a0,48
    80000d94:	fc5ff06f          	j	80000d58 <_ftoa+0x3e4>
    80000d98:	02000c93          	li	s9,32
    80000d9c:	f49ff06f          	j	80000ce4 <_ftoa+0x370>
    80000da0:	020c8793          	addi	a5,s9,32
    80000da4:	002785b3          	add	a1,a5,sp
    80000da8:	00c58023          	sb	a2,0(a1)
    80000dac:	001c8c93          	addi	s9,s9,1
    80000db0:	06dcf463          	bgeu	s9,a3,80000e18 <_ftoa+0x4a4>
    80000db4:	feec96e3          	bne	s9,a4,80000da0 <_ftoa+0x42c>
    80000db8:	00090893          	mv	a7,s2
    80000dbc:	00098813          	mv	a6,s3
    80000dc0:	000c8793          	mv	a5,s9
    80000dc4:	02010713          	addi	a4,sp,32
    80000dc8:	000b8693          	mv	a3,s7
    80000dcc:	000b0613          	mv	a2,s6
    80000dd0:	000a8593          	mv	a1,s5
    80000dd4:	000a0513          	mv	a0,s4
    80000dd8:	b80ff0ef          	jal	ra,80000158 <_out_rev>
    80000ddc:	0a813083          	ld	ra,168(sp)
    80000de0:	0a013403          	ld	s0,160(sp)
    80000de4:	09813483          	ld	s1,152(sp)
    80000de8:	09013903          	ld	s2,144(sp)
    80000dec:	08813983          	ld	s3,136(sp)
    80000df0:	08013a03          	ld	s4,128(sp)
    80000df4:	07813a83          	ld	s5,120(sp)
    80000df8:	07013b03          	ld	s6,112(sp)
    80000dfc:	06813b83          	ld	s7,104(sp)
    80000e00:	06013c03          	ld	s8,96(sp)
    80000e04:	05813c83          	ld	s9,88(sp)
    80000e08:	05013d03          	ld	s10,80(sp)
    80000e0c:	04813d83          	ld	s11,72(sp)
    80000e10:	0b010113          	addi	sp,sp,176
    80000e14:	00008067          	ret
    80000e18:	02000713          	li	a4,32
    80000e1c:	f8ec8ee3          	beq	s9,a4,80000db8 <_ftoa+0x444>
    80000e20:	00013783          	ld	a5,0(sp)
    80000e24:	02078063          	beqz	a5,80000e44 <_ftoa+0x4d0>
    80000e28:	020c8793          	addi	a5,s9,32
    80000e2c:	02010713          	addi	a4,sp,32
    80000e30:	00e78733          	add	a4,a5,a4
    80000e34:	02d00693          	li	a3,45
    80000e38:	fed70023          	sb	a3,-32(a4)
    80000e3c:	001c8c93          	addi	s9,s9,1
    80000e40:	f79ff06f          	j	80000db8 <_ftoa+0x444>
    80000e44:	00497693          	andi	a3,s2,4
    80000e48:	00068c63          	beqz	a3,80000e60 <_ftoa+0x4ec>
    80000e4c:	020c8793          	addi	a5,s9,32
    80000e50:	02010713          	addi	a4,sp,32
    80000e54:	00e78733          	add	a4,a5,a4
    80000e58:	02b00693          	li	a3,43
    80000e5c:	fddff06f          	j	80000e38 <_ftoa+0x4c4>
    80000e60:	00897693          	andi	a3,s2,8
    80000e64:	f4068ae3          	beqz	a3,80000db8 <_ftoa+0x444>
    80000e68:	020c8793          	addi	a5,s9,32
    80000e6c:	02010693          	addi	a3,sp,32
    80000e70:	00d786b3          	add	a3,a5,a3
    80000e74:	fee68023          	sb	a4,-32(a3)
    80000e78:	fc5ff06f          	j	80000e3c <_ftoa+0x4c8>

0000000080000e7c <_out_char>:
    80000e7c:	00050463          	beqz	a0,80000e84 <_out_char+0x8>
    80000e80:	ab4ff06f          	j	80000134 <_putchar>
    80000e84:	00008067          	ret

0000000080000e88 <_out_fct>:
    80000e88:	00050863          	beqz	a0,80000e98 <_out_fct+0x10>
    80000e8c:	0005b783          	ld	a5,0(a1)
    80000e90:	0085b583          	ld	a1,8(a1)
    80000e94:	00078067          	jr	a5
    80000e98:	00008067          	ret

0000000080000e9c <_vsnprintf>:
    80000e9c:	f5010113          	addi	sp,sp,-176
    80000ea0:	09213823          	sd	s2,144(sp)
    80000ea4:	09313423          	sd	s3,136(sp)
    80000ea8:	09413023          	sd	s4,128(sp)
    80000eac:	07813023          	sd	s8,96(sp)
    80000eb0:	05913c23          	sd	s9,88(sp)
    80000eb4:	0a113423          	sd	ra,168(sp)
    80000eb8:	0a813023          	sd	s0,160(sp)
    80000ebc:	08913c23          	sd	s1,152(sp)
    80000ec0:	07513c23          	sd	s5,120(sp)
    80000ec4:	07613823          	sd	s6,112(sp)
    80000ec8:	07713423          	sd	s7,104(sp)
    80000ecc:	05a13823          	sd	s10,80(sp)
    80000ed0:	05b13423          	sd	s11,72(sp)
    80000ed4:	00058c13          	mv	s8,a1
    80000ed8:	00060993          	mv	s3,a2
    80000edc:	00068913          	mv	s2,a3
    80000ee0:	00070c93          	mv	s9,a4
    80000ee4:	fffffa17          	auipc	s4,0xfffff
    80000ee8:	270a0a13          	addi	s4,s4,624 # 80000154 <_out_null>
    80000eec:	00058463          	beqz	a1,80000ef4 <_vsnprintf+0x58>
    80000ef0:	00050a13          	mv	s4,a0
    80000ef4:	00010ab7          	lui	s5,0x10
    80000ef8:	fffa8793          	addi	a5,s5,-1 # ffff <_start-0x7fff0001>
    80000efc:	00009b37          	lui	s6,0x9
    80000f00:	00f13c23          	sd	a5,24(sp)
    80000f04:	00001bb7          	lui	s7,0x1
    80000f08:	041b0793          	addi	a5,s6,65 # 9041 <_start-0x7fff6fbf>
    80000f0c:	00000493          	li	s1,0
    80000f10:	02f13023          	sd	a5,32(sp)
    80000f14:	800b8b93          	addi	s7,s7,-2048 # 800 <_start-0x7ffff800>
    80000f18:	00002b17          	auipc	s6,0x2
    80000f1c:	e80b0b13          	addi	s6,s6,-384 # 80002d98 <__FUNCTION__.0+0x100>
    80000f20:	3f00006f          	j	80001310 <_vsnprintf+0x474>
    80000f24:	02500793          	li	a5,37
    80000f28:	00190913          	addi	s2,s2,1
    80000f2c:	00f50c63          	beq	a0,a5,80000f44 <_vsnprintf+0xa8>
    80000f30:	00148413          	addi	s0,s1,1
    80000f34:	00098693          	mv	a3,s3
    80000f38:	00048613          	mv	a2,s1
    80000f3c:	000c0593          	mv	a1,s8
    80000f40:	1c80006f          	j	80001108 <_vsnprintf+0x26c>
    80000f44:	00000893          	li	a7,0
    80000f48:	02b00693          	li	a3,43
    80000f4c:	02d00513          	li	a0,45
    80000f50:	03000813          	li	a6,48
    80000f54:	02000313          	li	t1,32
    80000f58:	02300e13          	li	t3,35
    80000f5c:	0140006f          	j	80000f70 <_vsnprintf+0xd4>
    80000f60:	04a78463          	beq	a5,a0,80000fa8 <_vsnprintf+0x10c>
    80000f64:	03079263          	bne	a5,a6,80000f88 <_vsnprintf+0xec>
    80000f68:	0018e893          	ori	a7,a7,1
    80000f6c:	00060913          	mv	s2,a2
    80000f70:	00094783          	lbu	a5,0(s2)
    80000f74:	00190613          	addi	a2,s2,1
    80000f78:	02d78c63          	beq	a5,a3,80000fb0 <_vsnprintf+0x114>
    80000f7c:	fef6e2e3          	bltu	a3,a5,80000f60 <_vsnprintf+0xc4>
    80000f80:	02678c63          	beq	a5,t1,80000fb8 <_vsnprintf+0x11c>
    80000f84:	03c78e63          	beq	a5,t3,80000fc0 <_vsnprintf+0x124>
    80000f88:	fd07869b          	addiw	a3,a5,-48
    80000f8c:	0ff6f693          	zext.b	a3,a3
    80000f90:	00900513          	li	a0,9
    80000f94:	08d56863          	bltu	a0,a3,80001024 <_vsnprintf+0x188>
    80000f98:	00000a93          	li	s5,0
    80000f9c:	00900613          	li	a2,9
    80000fa0:	00a00813          	li	a6,10
    80000fa4:	0340006f          	j	80000fd8 <_vsnprintf+0x13c>
    80000fa8:	0028e893          	ori	a7,a7,2
    80000fac:	fc1ff06f          	j	80000f6c <_vsnprintf+0xd0>
    80000fb0:	0048e893          	ori	a7,a7,4
    80000fb4:	fb9ff06f          	j	80000f6c <_vsnprintf+0xd0>
    80000fb8:	0088e893          	ori	a7,a7,8
    80000fbc:	fb1ff06f          	j	80000f6c <_vsnprintf+0xd0>
    80000fc0:	0108e893          	ori	a7,a7,16
    80000fc4:	fa9ff06f          	j	80000f6c <_vsnprintf+0xd0>
    80000fc8:	0358033b          	mulw	t1,a6,s5
    80000fcc:	00050913          	mv	s2,a0
    80000fd0:	fd03031b          	addiw	t1,t1,-48
    80000fd4:	00d30abb          	addw	s5,t1,a3
    80000fd8:	00094683          	lbu	a3,0(s2)
    80000fdc:	00190513          	addi	a0,s2,1
    80000fe0:	fd06879b          	addiw	a5,a3,-48
    80000fe4:	0ff7f793          	zext.b	a5,a5
    80000fe8:	fef670e3          	bgeu	a2,a5,80000fc8 <_vsnprintf+0x12c>
    80000fec:	00094603          	lbu	a2,0(s2)
    80000ff0:	02e00693          	li	a3,46
    80000ff4:	00000793          	li	a5,0
    80000ff8:	0ad61663          	bne	a2,a3,800010a4 <_vsnprintf+0x208>
    80000ffc:	00194503          	lbu	a0,1(s2)
    80001000:	00900813          	li	a6,9
    80001004:	00190693          	addi	a3,s2,1
    80001008:	fd05061b          	addiw	a2,a0,-48
    8000100c:	0ff67613          	zext.b	a2,a2
    80001010:	4008e893          	ori	a7,a7,1024
    80001014:	06c86663          	bltu	a6,a2,80001080 <_vsnprintf+0x1e4>
    80001018:	00900813          	li	a6,9
    8000101c:	00a00e93          	li	t4,10
    80001020:	0440006f          	j	80001064 <_vsnprintf+0x1c8>
    80001024:	02a00693          	li	a3,42
    80001028:	00000a93          	li	s5,0
    8000102c:	fcd790e3          	bne	a5,a3,80000fec <_vsnprintf+0x150>
    80001030:	000ca783          	lw	a5,0(s9)
    80001034:	008c8693          	addi	a3,s9,8
    80001038:	00078a9b          	sext.w	s5,a5
    8000103c:	0007d663          	bgez	a5,80001048 <_vsnprintf+0x1ac>
    80001040:	0028e893          	ori	a7,a7,2
    80001044:	40f00abb          	negw	s5,a5
    80001048:	00068c93          	mv	s9,a3
    8000104c:	00060913          	mv	s2,a2
    80001050:	f9dff06f          	j	80000fec <_vsnprintf+0x150>
    80001054:	02fe87bb          	mulw	a5,t4,a5
    80001058:	000e0693          	mv	a3,t3
    8000105c:	fd07879b          	addiw	a5,a5,-48
    80001060:	00a787bb          	addw	a5,a5,a0
    80001064:	0006c503          	lbu	a0,0(a3)
    80001068:	00168e13          	addi	t3,a3,1
    8000106c:	fd05061b          	addiw	a2,a0,-48
    80001070:	0ff67613          	zext.b	a2,a2
    80001074:	fec870e3          	bgeu	a6,a2,80001054 <_vsnprintf+0x1b8>
    80001078:	00068913          	mv	s2,a3
    8000107c:	0280006f          	j	800010a4 <_vsnprintf+0x208>
    80001080:	02a00613          	li	a2,42
    80001084:	fec51ae3          	bne	a0,a2,80001078 <_vsnprintf+0x1dc>
    80001088:	000ca703          	lw	a4,0(s9)
    8000108c:	008c8693          	addi	a3,s9,8
    80001090:	0007079b          	sext.w	a5,a4
    80001094:	00075463          	bgez	a4,8000109c <_vsnprintf+0x200>
    80001098:	00000793          	li	a5,0
    8000109c:	00290913          	addi	s2,s2,2
    800010a0:	00068c93          	mv	s9,a3
    800010a4:	00094683          	lbu	a3,0(s2)
    800010a8:	06c00513          	li	a0,108
    800010ac:	00190613          	addi	a2,s2,1
    800010b0:	06a68a63          	beq	a3,a0,80001124 <_vsnprintf+0x288>
    800010b4:	06d56063          	bltu	a0,a3,80001114 <_vsnprintf+0x278>
    800010b8:	06800513          	li	a0,104
    800010bc:	08a68263          	beq	a3,a0,80001140 <_vsnprintf+0x2a4>
    800010c0:	06a00513          	li	a0,106
    800010c4:	06a68463          	beq	a3,a0,8000112c <_vsnprintf+0x290>
    800010c8:	00094503          	lbu	a0,0(s2)
    800010cc:	06700693          	li	a3,103
    800010d0:	00190913          	addi	s2,s2,1
    800010d4:	10a6e063          	bltu	a3,a0,800011d4 <_vsnprintf+0x338>
    800010d8:	05700693          	li	a3,87
    800010dc:	08a6e063          	bltu	a3,a0,8000115c <_vsnprintf+0x2c0>
    800010e0:	04500693          	li	a3,69
    800010e4:	0ad50663          	beq	a0,a3,80001190 <_vsnprintf+0x2f4>
    800010e8:	08a6ec63          	bltu	a3,a0,80001180 <_vsnprintf+0x2e4>
    800010ec:	02500793          	li	a5,37
    800010f0:	e4f510e3          	bne	a0,a5,80000f30 <_vsnprintf+0x94>
    800010f4:	00148413          	addi	s0,s1,1
    800010f8:	00098693          	mv	a3,s3
    800010fc:	00048613          	mv	a2,s1
    80001100:	000c0593          	mv	a1,s8
    80001104:	02500513          	li	a0,37
    80001108:	000a00e7          	jalr	s4
    8000110c:	00040493          	mv	s1,s0
    80001110:	2000006f          	j	80001310 <_vsnprintf+0x474>
    80001114:	07400513          	li	a0,116
    80001118:	00a68a63          	beq	a3,a0,8000112c <_vsnprintf+0x290>
    8000111c:	07a00513          	li	a0,122
    80001120:	fa5ff06f          	j	800010c4 <_vsnprintf+0x228>
    80001124:	00194503          	lbu	a0,1(s2)
    80001128:	00d50663          	beq	a0,a3,80001134 <_vsnprintf+0x298>
    8000112c:	1008e893          	ori	a7,a7,256
    80001130:	01c0006f          	j	8000114c <_vsnprintf+0x2b0>
    80001134:	3008e893          	ori	a7,a7,768
    80001138:	00290913          	addi	s2,s2,2
    8000113c:	f8dff06f          	j	800010c8 <_vsnprintf+0x22c>
    80001140:	00194503          	lbu	a0,1(s2)
    80001144:	00d50863          	beq	a0,a3,80001154 <_vsnprintf+0x2b8>
    80001148:	0808e893          	ori	a7,a7,128
    8000114c:	00060913          	mv	s2,a2
    80001150:	f79ff06f          	j	800010c8 <_vsnprintf+0x22c>
    80001154:	0c08e893          	ori	a7,a7,192
    80001158:	fe1ff06f          	j	80001138 <_vsnprintf+0x29c>
    8000115c:	fa85069b          	addiw	a3,a0,-88
    80001160:	0ff6f693          	zext.b	a3,a3
    80001164:	00f00613          	li	a2,15
    80001168:	dcd664e3          	bltu	a2,a3,80000f30 <_vsnprintf+0x94>
    8000116c:	00269693          	slli	a3,a3,0x2
    80001170:	016686b3          	add	a3,a3,s6
    80001174:	0006a683          	lw	a3,0(a3)
    80001178:	016686b3          	add	a3,a3,s6
    8000117c:	00068067          	jr	a3
    80001180:	04600693          	li	a3,70
    80001184:	2ed50a63          	beq	a0,a3,80001478 <_vsnprintf+0x5dc>
    80001188:	04700693          	li	a3,71
    8000118c:	dad512e3          	bne	a0,a3,80000f30 <_vsnprintf+0x94>
    80001190:	0df57693          	andi	a3,a0,223
    80001194:	04700613          	li	a2,71
    80001198:	00c69663          	bne	a3,a2,800011a4 <_vsnprintf+0x308>
    8000119c:	0178e8b3          	or	a7,a7,s7
    800011a0:	0fd57513          	andi	a0,a0,253
    800011a4:	04500693          	li	a3,69
    800011a8:	00d51463          	bne	a0,a3,800011b0 <_vsnprintf+0x314>
    800011ac:	0208e893          	ori	a7,a7,32
    800011b0:	000cb703          	ld	a4,0(s9)
    800011b4:	000a8813          	mv	a6,s5
    800011b8:	00098693          	mv	a3,s3
    800011bc:	00048613          	mv	a2,s1
    800011c0:	000c0593          	mv	a1,s8
    800011c4:	000a0513          	mv	a0,s4
    800011c8:	008c8413          	addi	s0,s9,8
    800011cc:	b00ff0ef          	jal	ra,800004cc <_etoa>
    800011d0:	1380006f          	j	80001308 <_vsnprintf+0x46c>
    800011d4:	f975069b          	addiw	a3,a0,-105
    800011d8:	0ff6f693          	zext.b	a3,a3
    800011dc:	00f00613          	li	a2,15
    800011e0:	d4d668e3          	bltu	a2,a3,80000f30 <_vsnprintf+0x94>
    800011e4:	02013703          	ld	a4,32(sp)
    800011e8:	00100613          	li	a2,1
    800011ec:	00d61633          	sll	a2,a2,a3
    800011f0:	00e67633          	and	a2,a2,a4
    800011f4:	04061c63          	bnez	a2,8000124c <_vsnprintf+0x3b0>
    800011f8:	00a00613          	li	a2,10
    800011fc:	36c68863          	beq	a3,a2,8000156c <_vsnprintf+0x6d0>
    80001200:	00700613          	li	a2,7
    80001204:	d2c696e3          	bne	a3,a2,80000f30 <_vsnprintf+0x94>
    80001208:	000cb703          	ld	a4,0(s9)
    8000120c:	0218e413          	ori	s0,a7,33
    80001210:	01000693          	li	a3,16
    80001214:	00d13023          	sd	a3,0(sp)
    80001218:	00078893          	mv	a7,a5
    8000121c:	00048613          	mv	a2,s1
    80001220:	00813423          	sd	s0,8(sp)
    80001224:	01000813          	li	a6,16
    80001228:	00000793          	li	a5,0
    8000122c:	00098693          	mv	a3,s3
    80001230:	000c0593          	mv	a1,s8
    80001234:	000a0513          	mv	a0,s4
    80001238:	008c8d13          	addi	s10,s9,8
    8000123c:	848ff0ef          	jal	ra,80000284 <_ntoa_long>
    80001240:	00050493          	mv	s1,a0
    80001244:	000d0c93          	mv	s9,s10
    80001248:	0c80006f          	j	80001310 <_vsnprintf+0x474>
    8000124c:	07800693          	li	a3,120
    80001250:	01000813          	li	a6,16
    80001254:	02d50c63          	beq	a0,a3,8000128c <_vsnprintf+0x3f0>
    80001258:	06200693          	li	a3,98
    8000125c:	02d50c63          	beq	a0,a3,80001294 <_vsnprintf+0x3f8>
    80001260:	06f00693          	li	a3,111
    80001264:	48d50063          	beq	a0,a3,800016e4 <_vsnprintf+0x848>
    80001268:	05800693          	li	a3,88
    8000126c:	00d50c63          	beq	a0,a3,80001284 <_vsnprintf+0x3e8>
    80001270:	fef8f893          	andi	a7,a7,-17
    80001274:	00a00813          	li	a6,10
    80001278:	06900693          	li	a3,105
    8000127c:	02d50263          	beq	a0,a3,800012a0 <_vsnprintf+0x404>
    80001280:	0180006f          	j	80001298 <_vsnprintf+0x3fc>
    80001284:	0208e893          	ori	a7,a7,32
    80001288:	01000813          	li	a6,16
    8000128c:	ff38f893          	andi	a7,a7,-13
    80001290:	0100006f          	j	800012a0 <_vsnprintf+0x404>
    80001294:	00200813          	li	a6,2
    80001298:	06400693          	li	a3,100
    8000129c:	fed518e3          	bne	a0,a3,8000128c <_vsnprintf+0x3f0>
    800012a0:	4008f693          	andi	a3,a7,1024
    800012a4:	00068463          	beqz	a3,800012ac <_vsnprintf+0x410>
    800012a8:	ffe8f893          	andi	a7,a7,-2
    800012ac:	02081813          	slli	a6,a6,0x20
    800012b0:	06900e13          	li	t3,105
    800012b4:	00088693          	mv	a3,a7
    800012b8:	2008f613          	andi	a2,a7,512
    800012bc:	02085813          	srli	a6,a6,0x20
    800012c0:	008c8413          	addi	s0,s9,8
    800012c4:	01c50663          	beq	a0,t3,800012d0 <_vsnprintf+0x434>
    800012c8:	06400e13          	li	t3,100
    800012cc:	13c51863          	bne	a0,t3,800013fc <_vsnprintf+0x560>
    800012d0:	0a060263          	beqz	a2,80001374 <_vsnprintf+0x4d8>
    800012d4:	000cb683          	ld	a3,0(s9)
    800012d8:	01113423          	sd	a7,8(sp)
    800012dc:	01513023          	sd	s5,0(sp)
    800012e0:	43f6d713          	srai	a4,a3,0x3f
    800012e4:	00d74633          	xor	a2,a4,a3
    800012e8:	00078893          	mv	a7,a5
    800012ec:	40e60733          	sub	a4,a2,a4
    800012f0:	03f6d793          	srli	a5,a3,0x3f
    800012f4:	00098693          	mv	a3,s3
    800012f8:	00048613          	mv	a2,s1
    800012fc:	000c0593          	mv	a1,s8
    80001300:	000a0513          	mv	a0,s4
    80001304:	f81fe0ef          	jal	ra,80000284 <_ntoa_long>
    80001308:	00050493          	mv	s1,a0
    8000130c:	00040c93          	mv	s9,s0
    80001310:	00094503          	lbu	a0,0(s2)
    80001314:	c00518e3          	bnez	a0,80000f24 <_vsnprintf+0x88>
    80001318:	00048613          	mv	a2,s1
    8000131c:	0134e463          	bltu	s1,s3,80001324 <_vsnprintf+0x488>
    80001320:	fff98613          	addi	a2,s3,-1
    80001324:	00098693          	mv	a3,s3
    80001328:	000c0593          	mv	a1,s8
    8000132c:	00000513          	li	a0,0
    80001330:	000a00e7          	jalr	s4
    80001334:	0a813083          	ld	ra,168(sp)
    80001338:	0a013403          	ld	s0,160(sp)
    8000133c:	09013903          	ld	s2,144(sp)
    80001340:	08813983          	ld	s3,136(sp)
    80001344:	08013a03          	ld	s4,128(sp)
    80001348:	07813a83          	ld	s5,120(sp)
    8000134c:	07013b03          	ld	s6,112(sp)
    80001350:	06813b83          	ld	s7,104(sp)
    80001354:	06013c03          	ld	s8,96(sp)
    80001358:	05813c83          	ld	s9,88(sp)
    8000135c:	05013d03          	ld	s10,80(sp)
    80001360:	04813d83          	ld	s11,72(sp)
    80001364:	0004851b          	sext.w	a0,s1
    80001368:	09813483          	ld	s1,152(sp)
    8000136c:	0b010113          	addi	sp,sp,176
    80001370:	00008067          	ret
    80001374:	1008f693          	andi	a3,a7,256
    80001378:	00088613          	mv	a2,a7
    8000137c:	02068e63          	beqz	a3,800013b8 <_vsnprintf+0x51c>
    80001380:	000cb683          	ld	a3,0(s9)
    80001384:	01113423          	sd	a7,8(sp)
    80001388:	01513023          	sd	s5,0(sp)
    8000138c:	43f6d713          	srai	a4,a3,0x3f
    80001390:	00d74633          	xor	a2,a4,a3
    80001394:	00078893          	mv	a7,a5
    80001398:	40e60733          	sub	a4,a2,a4
    8000139c:	03f6d793          	srli	a5,a3,0x3f
    800013a0:	00098693          	mv	a3,s3
    800013a4:	00048613          	mv	a2,s1
    800013a8:	000c0593          	mv	a1,s8
    800013ac:	000a0513          	mv	a0,s4
    800013b0:	ed5fe0ef          	jal	ra,80000284 <_ntoa_long>
    800013b4:	f55ff06f          	j	80001308 <_vsnprintf+0x46c>
    800013b8:	0408f513          	andi	a0,a7,64
    800013bc:	000ca683          	lw	a3,0(s9)
    800013c0:	02050463          	beqz	a0,800013e8 <_vsnprintf+0x54c>
    800013c4:	0ff6f693          	zext.b	a3,a3
    800013c8:	41f6d71b          	sraiw	a4,a3,0x1f
    800013cc:	00e6c633          	xor	a2,a3,a4
    800013d0:	01113423          	sd	a7,8(sp)
    800013d4:	01513023          	sd	s5,0(sp)
    800013d8:	00078893          	mv	a7,a5
    800013dc:	40e6073b          	subw	a4,a2,a4
    800013e0:	01f6d79b          	srliw	a5,a3,0x1f
    800013e4:	fbdff06f          	j	800013a0 <_vsnprintf+0x504>
    800013e8:	08067713          	andi	a4,a2,128
    800013ec:	fc070ee3          	beqz	a4,800013c8 <_vsnprintf+0x52c>
    800013f0:	0106969b          	slliw	a3,a3,0x10
    800013f4:	4106d69b          	sraiw	a3,a3,0x10
    800013f8:	fd1ff06f          	j	800013c8 <_vsnprintf+0x52c>
    800013fc:	00060e63          	beqz	a2,80001418 <_vsnprintf+0x57c>
    80001400:	000cb703          	ld	a4,0(s9)
    80001404:	01113423          	sd	a7,8(sp)
    80001408:	01513023          	sd	s5,0(sp)
    8000140c:	00078893          	mv	a7,a5
    80001410:	00000793          	li	a5,0
    80001414:	ee1ff06f          	j	800012f4 <_vsnprintf+0x458>
    80001418:	1006f613          	andi	a2,a3,256
    8000141c:	00060e63          	beqz	a2,80001438 <_vsnprintf+0x59c>
    80001420:	000cb703          	ld	a4,0(s9)
    80001424:	01113423          	sd	a7,8(sp)
    80001428:	01513023          	sd	s5,0(sp)
    8000142c:	00078893          	mv	a7,a5
    80001430:	00000793          	li	a5,0
    80001434:	f6dff06f          	j	800013a0 <_vsnprintf+0x504>
    80001438:	0406f613          	andi	a2,a3,64
    8000143c:	000ca703          	lw	a4,0(s9)
    80001440:	02060263          	beqz	a2,80001464 <_vsnprintf+0x5c8>
    80001444:	0ff77713          	zext.b	a4,a4
    80001448:	02071713          	slli	a4,a4,0x20
    8000144c:	01113423          	sd	a7,8(sp)
    80001450:	01513023          	sd	s5,0(sp)
    80001454:	00078893          	mv	a7,a5
    80001458:	02075713          	srli	a4,a4,0x20
    8000145c:	00000793          	li	a5,0
    80001460:	f41ff06f          	j	800013a0 <_vsnprintf+0x504>
    80001464:	0806f693          	andi	a3,a3,128
    80001468:	fe0680e3          	beqz	a3,80001448 <_vsnprintf+0x5ac>
    8000146c:	01813683          	ld	a3,24(sp)
    80001470:	00d77733          	and	a4,a4,a3
    80001474:	fd5ff06f          	j	80001448 <_vsnprintf+0x5ac>
    80001478:	0208e893          	ori	a7,a7,32
    8000147c:	000cb703          	ld	a4,0(s9)
    80001480:	000a8813          	mv	a6,s5
    80001484:	00098693          	mv	a3,s3
    80001488:	00048613          	mv	a2,s1
    8000148c:	000c0593          	mv	a1,s8
    80001490:	000a0513          	mv	a0,s4
    80001494:	008c8413          	addi	s0,s9,8
    80001498:	cdcff0ef          	jal	ra,80000974 <_ftoa>
    8000149c:	e6dff06f          	j	80001308 <_vsnprintf+0x46c>
    800014a0:	0028f413          	andi	s0,a7,2
    800014a4:	00100d93          	li	s11,1
    800014a8:	04041863          	bnez	s0,800014f8 <_vsnprintf+0x65c>
    800014ac:	00000d13          	li	s10,0
    800014b0:	0140006f          	j	800014c4 <_vsnprintf+0x628>
    800014b4:	00098693          	mv	a3,s3
    800014b8:	000c0593          	mv	a1,s8
    800014bc:	02000513          	li	a0,32
    800014c0:	000a00e7          	jalr	s4
    800014c4:	009d0633          	add	a2,s10,s1
    800014c8:	001d0d13          	addi	s10,s10,1
    800014cc:	000d079b          	sext.w	a5,s10
    800014d0:	ff57e2e3          	bltu	a5,s5,800014b4 <_vsnprintf+0x618>
    800014d4:	00000793          	li	a5,0
    800014d8:	000a8863          	beqz	s5,800014e8 <_vsnprintf+0x64c>
    800014dc:	fffa879b          	addiw	a5,s5,-1
    800014e0:	02079793          	slli	a5,a5,0x20
    800014e4:	0207d793          	srli	a5,a5,0x20
    800014e8:	00f484b3          	add	s1,s1,a5
    800014ec:	00200d93          	li	s11,2
    800014f0:	000a8463          	beqz	s5,800014f8 <_vsnprintf+0x65c>
    800014f4:	001a8d9b          	addiw	s11,s5,1
    800014f8:	000cc503          	lbu	a0,0(s9)
    800014fc:	008c8793          	addi	a5,s9,8
    80001500:	00f13823          	sd	a5,16(sp)
    80001504:	00098693          	mv	a3,s3
    80001508:	00048613          	mv	a2,s1
    8000150c:	000c0593          	mv	a1,s8
    80001510:	00148d13          	addi	s10,s1,1
    80001514:	000a00e7          	jalr	s4
    80001518:	04040463          	beqz	s0,80001560 <_vsnprintf+0x6c4>
    8000151c:	000d8413          	mv	s0,s11
    80001520:	000d0613          	mv	a2,s10
    80001524:	0200006f          	j	80001544 <_vsnprintf+0x6a8>
    80001528:	00098693          	mv	a3,s3
    8000152c:	000c0593          	mv	a1,s8
    80001530:	02000513          	li	a0,32
    80001534:	00160493          	addi	s1,a2,1
    80001538:	000a00e7          	jalr	s4
    8000153c:	0014041b          	addiw	s0,s0,1
    80001540:	00048613          	mv	a2,s1
    80001544:	ff5462e3          	bltu	s0,s5,80001528 <_vsnprintf+0x68c>
    80001548:	00000713          	li	a4,0
    8000154c:	01bae863          	bltu	s5,s11,8000155c <_vsnprintf+0x6c0>
    80001550:	41ba8dbb          	subw	s11,s5,s11
    80001554:	020d9713          	slli	a4,s11,0x20
    80001558:	02075713          	srli	a4,a4,0x20
    8000155c:	00ed0d33          	add	s10,s10,a4
    80001560:	01013c83          	ld	s9,16(sp)
    80001564:	000d0493          	mv	s1,s10
    80001568:	da9ff06f          	j	80001310 <_vsnprintf+0x474>
    8000156c:	008c8713          	addi	a4,s9,8
    80001570:	00e13823          	sd	a4,16(sp)
    80001574:	000cbd83          	ld	s11,0(s9)
    80001578:	fff00713          	li	a4,-1
    8000157c:	00078663          	beqz	a5,80001588 <_vsnprintf+0x6ec>
    80001580:	02079713          	slli	a4,a5,0x20
    80001584:	02075713          	srli	a4,a4,0x20
    80001588:	00ed86b3          	add	a3,s11,a4
    8000158c:	000d8713          	mv	a4,s11
    80001590:	00074603          	lbu	a2,0(a4)
    80001594:	00060463          	beqz	a2,8000159c <_vsnprintf+0x700>
    80001598:	02e69a63          	bne	a3,a4,800015cc <_vsnprintf+0x730>
    8000159c:	4008fd13          	andi	s10,a7,1024
    800015a0:	41b70cbb          	subw	s9,a4,s11
    800015a4:	000d0a63          	beqz	s10,800015b8 <_vsnprintf+0x71c>
    800015a8:	00078693          	mv	a3,a5
    800015ac:	00fcf463          	bgeu	s9,a5,800015b4 <_vsnprintf+0x718>
    800015b0:	000c8693          	mv	a3,s9
    800015b4:	00068c9b          	sext.w	s9,a3
    800015b8:	0028f413          	andi	s0,a7,2
    800015bc:	06041e63          	bnez	s0,80001638 <_vsnprintf+0x79c>
    800015c0:	00048613          	mv	a2,s1
    800015c4:	409c883b          	subw	a6,s9,s1
    800015c8:	03c0006f          	j	80001604 <_vsnprintf+0x768>
    800015cc:	00170713          	addi	a4,a4,1
    800015d0:	fc1ff06f          	j	80001590 <_vsnprintf+0x6f4>
    800015d4:	00160893          	addi	a7,a2,1
    800015d8:	03012e23          	sw	a6,60(sp)
    800015dc:	02f13823          	sd	a5,48(sp)
    800015e0:	03113423          	sd	a7,40(sp)
    800015e4:	00098693          	mv	a3,s3
    800015e8:	000c0593          	mv	a1,s8
    800015ec:	02000513          	li	a0,32
    800015f0:	000a00e7          	jalr	s4
    800015f4:	02813883          	ld	a7,40(sp)
    800015f8:	03013783          	ld	a5,48(sp)
    800015fc:	03c12803          	lw	a6,60(sp)
    80001600:	00088613          	mv	a2,a7
    80001604:	00c806bb          	addw	a3,a6,a2
    80001608:	fd56e6e3          	bltu	a3,s5,800015d4 <_vsnprintf+0x738>
    8000160c:	419a863b          	subw	a2,s5,s9
    80001610:	00000693          	li	a3,0
    80001614:	019ae663          	bltu	s5,s9,80001620 <_vsnprintf+0x784>
    80001618:	02061693          	slli	a3,a2,0x20
    8000161c:	0206d693          	srli	a3,a3,0x20
    80001620:	00d484b3          	add	s1,s1,a3
    80001624:	00000693          	li	a3,0
    80001628:	019ae463          	bltu	s5,s9,80001630 <_vsnprintf+0x794>
    8000162c:	00060693          	mv	a3,a2
    80001630:	001c871b          	addiw	a4,s9,1
    80001634:	00e68cbb          	addw	s9,a3,a4
    80001638:	00048813          	mv	a6,s1
    8000163c:	0300006f          	j	8000166c <_vsnprintf+0x7d0>
    80001640:	00068793          	mv	a5,a3
    80001644:	00180893          	addi	a7,a6,1
    80001648:	02f13823          	sd	a5,48(sp)
    8000164c:	03113423          	sd	a7,40(sp)
    80001650:	00080613          	mv	a2,a6
    80001654:	00098693          	mv	a3,s3
    80001658:	000c0593          	mv	a1,s8
    8000165c:	000a00e7          	jalr	s4
    80001660:	02813883          	ld	a7,40(sp)
    80001664:	03013783          	ld	a5,48(sp)
    80001668:	00088813          	mv	a6,a7
    8000166c:	409806b3          	sub	a3,a6,s1
    80001670:	00dd86b3          	add	a3,s11,a3
    80001674:	0006c503          	lbu	a0,0(a3)
    80001678:	00050863          	beqz	a0,80001688 <_vsnprintf+0x7ec>
    8000167c:	fc0d04e3          	beqz	s10,80001644 <_vsnprintf+0x7a8>
    80001680:	fff7869b          	addiw	a3,a5,-1
    80001684:	fa079ee3          	bnez	a5,80001640 <_vsnprintf+0x7a4>
    80001688:	04040863          	beqz	s0,800016d8 <_vsnprintf+0x83c>
    8000168c:	00080613          	mv	a2,a6
    80001690:	410c843b          	subw	s0,s9,a6
    80001694:	0240006f          	j	800016b8 <_vsnprintf+0x81c>
    80001698:	03013423          	sd	a6,40(sp)
    8000169c:	00098693          	mv	a3,s3
    800016a0:	000c0593          	mv	a1,s8
    800016a4:	02000513          	li	a0,32
    800016a8:	00160493          	addi	s1,a2,1
    800016ac:	000a00e7          	jalr	s4
    800016b0:	02813803          	ld	a6,40(sp)
    800016b4:	00048613          	mv	a2,s1
    800016b8:	00c407bb          	addw	a5,s0,a2
    800016bc:	fd57eee3          	bltu	a5,s5,80001698 <_vsnprintf+0x7fc>
    800016c0:	00000793          	li	a5,0
    800016c4:	019ae863          	bltu	s5,s9,800016d4 <_vsnprintf+0x838>
    800016c8:	419a873b          	subw	a4,s5,s9
    800016cc:	02071793          	slli	a5,a4,0x20
    800016d0:	0207d793          	srli	a5,a5,0x20
    800016d4:	00f80833          	add	a6,a6,a5
    800016d8:	01013c83          	ld	s9,16(sp)
    800016dc:	00080493          	mv	s1,a6
    800016e0:	c31ff06f          	j	80001310 <_vsnprintf+0x474>
    800016e4:	00800813          	li	a6,8
    800016e8:	b91ff06f          	j	80001278 <_vsnprintf+0x3dc>

00000000800016ec <printf_>:
    800016ec:	fa010113          	addi	sp,sp,-96
    800016f0:	02b13423          	sd	a1,40(sp)
    800016f4:	02c13823          	sd	a2,48(sp)
    800016f8:	02d13c23          	sd	a3,56(sp)
    800016fc:	04e13023          	sd	a4,64(sp)
    80001700:	00050693          	mv	a3,a0
    80001704:	02810713          	addi	a4,sp,40
    80001708:	00010593          	mv	a1,sp
    8000170c:	fff00613          	li	a2,-1
    80001710:	fffff517          	auipc	a0,0xfffff
    80001714:	76c50513          	addi	a0,a0,1900 # 80000e7c <_out_char>
    80001718:	00113c23          	sd	ra,24(sp)
    8000171c:	04f13423          	sd	a5,72(sp)
    80001720:	05013823          	sd	a6,80(sp)
    80001724:	05113c23          	sd	a7,88(sp)
    80001728:	00e13423          	sd	a4,8(sp)
    8000172c:	f70ff0ef          	jal	ra,80000e9c <_vsnprintf>
    80001730:	01813083          	ld	ra,24(sp)
    80001734:	06010113          	addi	sp,sp,96
    80001738:	00008067          	ret

000000008000173c <sprintf_>:
    8000173c:	fb010113          	addi	sp,sp,-80
    80001740:	02c13023          	sd	a2,32(sp)
    80001744:	02d13423          	sd	a3,40(sp)
    80001748:	02e13823          	sd	a4,48(sp)
    8000174c:	00058693          	mv	a3,a1
    80001750:	02010713          	addi	a4,sp,32
    80001754:	00050593          	mv	a1,a0
    80001758:	fff00613          	li	a2,-1
    8000175c:	fffff517          	auipc	a0,0xfffff
    80001760:	9e850513          	addi	a0,a0,-1560 # 80000144 <_out_buffer>
    80001764:	00113c23          	sd	ra,24(sp)
    80001768:	02f13c23          	sd	a5,56(sp)
    8000176c:	05013023          	sd	a6,64(sp)
    80001770:	05113423          	sd	a7,72(sp)
    80001774:	00e13423          	sd	a4,8(sp)
    80001778:	f24ff0ef          	jal	ra,80000e9c <_vsnprintf>
    8000177c:	01813083          	ld	ra,24(sp)
    80001780:	05010113          	addi	sp,sp,80
    80001784:	00008067          	ret

0000000080001788 <snprintf_>:
    80001788:	fb010113          	addi	sp,sp,-80
    8000178c:	02d13423          	sd	a3,40(sp)
    80001790:	02e13823          	sd	a4,48(sp)
    80001794:	00060693          	mv	a3,a2
    80001798:	02810713          	addi	a4,sp,40
    8000179c:	00058613          	mv	a2,a1
    800017a0:	00050593          	mv	a1,a0
    800017a4:	fffff517          	auipc	a0,0xfffff
    800017a8:	9a050513          	addi	a0,a0,-1632 # 80000144 <_out_buffer>
    800017ac:	00113c23          	sd	ra,24(sp)
    800017b0:	02f13c23          	sd	a5,56(sp)
    800017b4:	05013023          	sd	a6,64(sp)
    800017b8:	05113423          	sd	a7,72(sp)
    800017bc:	00e13423          	sd	a4,8(sp)
    800017c0:	edcff0ef          	jal	ra,80000e9c <_vsnprintf>
    800017c4:	01813083          	ld	ra,24(sp)
    800017c8:	05010113          	addi	sp,sp,80
    800017cc:	00008067          	ret

00000000800017d0 <vprintf_>:
    800017d0:	fe010113          	addi	sp,sp,-32
    800017d4:	00050693          	mv	a3,a0
    800017d8:	00058713          	mv	a4,a1
    800017dc:	fff00613          	li	a2,-1
    800017e0:	00810593          	addi	a1,sp,8
    800017e4:	fffff517          	auipc	a0,0xfffff
    800017e8:	69850513          	addi	a0,a0,1688 # 80000e7c <_out_char>
    800017ec:	00113c23          	sd	ra,24(sp)
    800017f0:	eacff0ef          	jal	ra,80000e9c <_vsnprintf>
    800017f4:	01813083          	ld	ra,24(sp)
    800017f8:	02010113          	addi	sp,sp,32
    800017fc:	00008067          	ret

0000000080001800 <vsnprintf_>:
    80001800:	00068713          	mv	a4,a3
    80001804:	00060693          	mv	a3,a2
    80001808:	00058613          	mv	a2,a1
    8000180c:	00050593          	mv	a1,a0
    80001810:	fffff517          	auipc	a0,0xfffff
    80001814:	93450513          	addi	a0,a0,-1740 # 80000144 <_out_buffer>
    80001818:	e84ff06f          	j	80000e9c <_vsnprintf>

000000008000181c <fctprintf>:
    8000181c:	fa010113          	addi	sp,sp,-96
    80001820:	02d13c23          	sd	a3,56(sp)
    80001824:	04e13023          	sd	a4,64(sp)
    80001828:	00a13823          	sd	a0,16(sp)
    8000182c:	03810713          	addi	a4,sp,56
    80001830:	00b13c23          	sd	a1,24(sp)
    80001834:	00060693          	mv	a3,a2
    80001838:	01010593          	addi	a1,sp,16
    8000183c:	fff00613          	li	a2,-1
    80001840:	fffff517          	auipc	a0,0xfffff
    80001844:	64850513          	addi	a0,a0,1608 # 80000e88 <_out_fct>
    80001848:	02113423          	sd	ra,40(sp)
    8000184c:	04f13423          	sd	a5,72(sp)
    80001850:	05013823          	sd	a6,80(sp)
    80001854:	05113c23          	sd	a7,88(sp)
    80001858:	00e13423          	sd	a4,8(sp)
    8000185c:	e40ff0ef          	jal	ra,80000e9c <_vsnprintf>
    80001860:	02813083          	ld	ra,40(sp)
    80001864:	06010113          	addi	sp,sp,96
    80001868:	00008067          	ret

000000008000186c <__adddf3>:
    8000186c:	fff00813          	li	a6,-1
    80001870:	fe010113          	addi	sp,sp,-32
    80001874:	00c85713          	srli	a4,a6,0xc
    80001878:	00a777b3          	and	a5,a4,a0
    8000187c:	00813823          	sd	s0,16(sp)
    80001880:	00913423          	sd	s1,8(sp)
    80001884:	03455413          	srli	s0,a0,0x34
    80001888:	03f55493          	srli	s1,a0,0x3f
    8000188c:	0345d513          	srli	a0,a1,0x34
    80001890:	7ff47413          	andi	s0,s0,2047
    80001894:	7ff57513          	andi	a0,a0,2047
    80001898:	00b77733          	and	a4,a4,a1
    8000189c:	40a406bb          	subw	a3,s0,a0
    800018a0:	00113c23          	sd	ra,24(sp)
    800018a4:	01213023          	sd	s2,0(sp)
    800018a8:	03f5d593          	srli	a1,a1,0x3f
    800018ac:	00379793          	slli	a5,a5,0x3
    800018b0:	00371713          	slli	a4,a4,0x3
    800018b4:	0006861b          	sext.w	a2,a3
    800018b8:	1ab49063          	bne	s1,a1,80001a58 <__adddf3+0x1ec>
    800018bc:	0ac05a63          	blez	a2,80001970 <__adddf3+0x104>
    800018c0:	06051863          	bnez	a0,80001930 <__adddf3+0xc4>
    800018c4:	04070863          	beqz	a4,80001914 <__adddf3+0xa8>
    800018c8:	fff6861b          	addiw	a2,a3,-1
    800018cc:	04061063          	bnez	a2,8000190c <__adddf3+0xa0>
    800018d0:	00e787b3          	add	a5,a5,a4
    800018d4:	0377d713          	srli	a4,a5,0x37
    800018d8:	00177713          	andi	a4,a4,1
    800018dc:	02070c63          	beqz	a4,80001914 <__adddf3+0xa8>
    800018e0:	00140413          	addi	s0,s0,1
    800018e4:	7ff00713          	li	a4,2047
    800018e8:	36e40663          	beq	s0,a4,80001c54 <__adddf3+0x3e8>
    800018ec:	1ff00713          	li	a4,511
    800018f0:	03671713          	slli	a4,a4,0x36
    800018f4:	0017f693          	andi	a3,a5,1
    800018f8:	fff70713          	addi	a4,a4,-1
    800018fc:	0017d793          	srli	a5,a5,0x1
    80001900:	00e7f7b3          	and	a5,a5,a4
    80001904:	00d7e7b3          	or	a5,a5,a3
    80001908:	00c0006f          	j	80001914 <__adddf3+0xa8>
    8000190c:	7ff00693          	li	a3,2047
    80001910:	02d41a63          	bne	s0,a3,80001944 <__adddf3+0xd8>
    80001914:	0077f713          	andi	a4,a5,7
    80001918:	34070063          	beqz	a4,80001c58 <__adddf3+0x3ec>
    8000191c:	00f7f713          	andi	a4,a5,15
    80001920:	00400693          	li	a3,4
    80001924:	32d70a63          	beq	a4,a3,80001c58 <__adddf3+0x3ec>
    80001928:	00478793          	addi	a5,a5,4
    8000192c:	32c0006f          	j	80001c58 <__adddf3+0x3ec>
    80001930:	7ff00693          	li	a3,2047
    80001934:	fed400e3          	beq	s0,a3,80001914 <__adddf3+0xa8>
    80001938:	00100693          	li	a3,1
    8000193c:	03769693          	slli	a3,a3,0x37
    80001940:	00d76733          	or	a4,a4,a3
    80001944:	03800593          	li	a1,56
    80001948:	00100693          	li	a3,1
    8000194c:	00c5ce63          	blt	a1,a2,80001968 <__adddf3+0xfc>
    80001950:	04000693          	li	a3,64
    80001954:	40c686bb          	subw	a3,a3,a2
    80001958:	00c755b3          	srl	a1,a4,a2
    8000195c:	00d71733          	sll	a4,a4,a3
    80001960:	00e03733          	snez	a4,a4
    80001964:	00e5e6b3          	or	a3,a1,a4
    80001968:	00d787b3          	add	a5,a5,a3
    8000196c:	f69ff06f          	j	800018d4 <__adddf3+0x68>
    80001970:	06060c63          	beqz	a2,800019e8 <__adddf3+0x17c>
    80001974:	02041863          	bnez	s0,800019a4 <__adddf3+0x138>
    80001978:	2c078263          	beqz	a5,80001c3c <__adddf3+0x3d0>
    8000197c:	fff6c693          	not	a3,a3
    80001980:	0006869b          	sext.w	a3,a3
    80001984:	00069863          	bnez	a3,80001994 <__adddf3+0x128>
    80001988:	00e787b3          	add	a5,a5,a4
    8000198c:	00050413          	mv	s0,a0
    80001990:	f45ff06f          	j	800018d4 <__adddf3+0x68>
    80001994:	7ff00613          	li	a2,2047
    80001998:	02c51263          	bne	a0,a2,800019bc <__adddf3+0x150>
    8000199c:	00070793          	mv	a5,a4
    800019a0:	2140006f          	j	80001bb4 <__adddf3+0x348>
    800019a4:	7ff00613          	li	a2,2047
    800019a8:	fec50ae3          	beq	a0,a2,8000199c <__adddf3+0x130>
    800019ac:	00100613          	li	a2,1
    800019b0:	03761613          	slli	a2,a2,0x37
    800019b4:	40d006bb          	negw	a3,a3
    800019b8:	00c7e7b3          	or	a5,a5,a2
    800019bc:	03800593          	li	a1,56
    800019c0:	00100613          	li	a2,1
    800019c4:	00d5ce63          	blt	a1,a3,800019e0 <__adddf3+0x174>
    800019c8:	04000613          	li	a2,64
    800019cc:	00d7d5b3          	srl	a1,a5,a3
    800019d0:	40d606bb          	subw	a3,a2,a3
    800019d4:	00d797b3          	sll	a5,a5,a3
    800019d8:	00f037b3          	snez	a5,a5
    800019dc:	00f5e633          	or	a2,a1,a5
    800019e0:	00e607b3          	add	a5,a2,a4
    800019e4:	fa9ff06f          	j	8000198c <__adddf3+0x120>
    800019e8:	00140693          	addi	a3,s0,1
    800019ec:	7fe6f613          	andi	a2,a3,2046
    800019f0:	04061863          	bnez	a2,80001a40 <__adddf3+0x1d4>
    800019f4:	02041863          	bnez	s0,80001a24 <__adddf3+0x1b8>
    800019f8:	24078863          	beqz	a5,80001c48 <__adddf3+0x3dc>
    800019fc:	f0070ce3          	beqz	a4,80001914 <__adddf3+0xa8>
    80001a00:	00e787b3          	add	a5,a5,a4
    80001a04:	0377d713          	srli	a4,a5,0x37
    80001a08:	00177713          	andi	a4,a4,1
    80001a0c:	f00704e3          	beqz	a4,80001914 <__adddf3+0xa8>
    80001a10:	03781813          	slli	a6,a6,0x37
    80001a14:	fff80813          	addi	a6,a6,-1
    80001a18:	0107f7b3          	and	a5,a5,a6
    80001a1c:	00100413          	li	s0,1
    80001a20:	ef5ff06f          	j	80001914 <__adddf3+0xa8>
    80001a24:	f6078ce3          	beqz	a5,8000199c <__adddf3+0x130>
    80001a28:	18070663          	beqz	a4,80001bb4 <__adddf3+0x348>
    80001a2c:	00100793          	li	a5,1
    80001a30:	00000493          	li	s1,0
    80001a34:	03679793          	slli	a5,a5,0x36
    80001a38:	7ff00413          	li	s0,2047
    80001a3c:	21c0006f          	j	80001c58 <__adddf3+0x3ec>
    80001a40:	7ff00613          	li	a2,2047
    80001a44:	20c68663          	beq	a3,a2,80001c50 <__adddf3+0x3e4>
    80001a48:	00e78733          	add	a4,a5,a4
    80001a4c:	00175793          	srli	a5,a4,0x1
    80001a50:	00068413          	mv	s0,a3
    80001a54:	ec1ff06f          	j	80001914 <__adddf3+0xa8>
    80001a58:	06c05e63          	blez	a2,80001ad4 <__adddf3+0x268>
    80001a5c:	06051063          	bnez	a0,80001abc <__adddf3+0x250>
    80001a60:	ea070ae3          	beqz	a4,80001914 <__adddf3+0xa8>
    80001a64:	fff6861b          	addiw	a2,a3,-1
    80001a68:	02061063          	bnez	a2,80001a88 <__adddf3+0x21c>
    80001a6c:	40e787b3          	sub	a5,a5,a4
    80001a70:	0377d713          	srli	a4,a5,0x37
    80001a74:	00177713          	andi	a4,a4,1
    80001a78:	e8070ee3          	beqz	a4,80001914 <__adddf3+0xa8>
    80001a7c:	00979913          	slli	s2,a5,0x9
    80001a80:	00995913          	srli	s2,s2,0x9
    80001a84:	1500006f          	j	80001bd4 <__adddf3+0x368>
    80001a88:	7ff00693          	li	a3,2047
    80001a8c:	e8d404e3          	beq	s0,a3,80001914 <__adddf3+0xa8>
    80001a90:	03800593          	li	a1,56
    80001a94:	00100693          	li	a3,1
    80001a98:	00c5ce63          	blt	a1,a2,80001ab4 <__adddf3+0x248>
    80001a9c:	04000693          	li	a3,64
    80001aa0:	40c686bb          	subw	a3,a3,a2
    80001aa4:	00c755b3          	srl	a1,a4,a2
    80001aa8:	00d71733          	sll	a4,a4,a3
    80001aac:	00e03733          	snez	a4,a4
    80001ab0:	00e5e6b3          	or	a3,a1,a4
    80001ab4:	40d787b3          	sub	a5,a5,a3
    80001ab8:	fb9ff06f          	j	80001a70 <__adddf3+0x204>
    80001abc:	7ff00693          	li	a3,2047
    80001ac0:	e4d40ae3          	beq	s0,a3,80001914 <__adddf3+0xa8>
    80001ac4:	00100693          	li	a3,1
    80001ac8:	03769693          	slli	a3,a3,0x37
    80001acc:	00d76733          	or	a4,a4,a3
    80001ad0:	fc1ff06f          	j	80001a90 <__adddf3+0x224>
    80001ad4:	08060063          	beqz	a2,80001b54 <__adddf3+0x2e8>
    80001ad8:	02041c63          	bnez	s0,80001b10 <__adddf3+0x2a4>
    80001adc:	1e078a63          	beqz	a5,80001cd0 <__adddf3+0x464>
    80001ae0:	fff6c693          	not	a3,a3
    80001ae4:	0006869b          	sext.w	a3,a3
    80001ae8:	00069a63          	bnez	a3,80001afc <__adddf3+0x290>
    80001aec:	40f707b3          	sub	a5,a4,a5
    80001af0:	00050413          	mv	s0,a0
    80001af4:	00058493          	mv	s1,a1
    80001af8:	f79ff06f          	j	80001a70 <__adddf3+0x204>
    80001afc:	7ff00613          	li	a2,2047
    80001b00:	02c51463          	bne	a0,a2,80001b28 <__adddf3+0x2bc>
    80001b04:	00070793          	mv	a5,a4
    80001b08:	7ff00413          	li	s0,2047
    80001b0c:	0680006f          	j	80001b74 <__adddf3+0x308>
    80001b10:	7ff00613          	li	a2,2047
    80001b14:	fec508e3          	beq	a0,a2,80001b04 <__adddf3+0x298>
    80001b18:	00100613          	li	a2,1
    80001b1c:	03761613          	slli	a2,a2,0x37
    80001b20:	40d006bb          	negw	a3,a3
    80001b24:	00c7e7b3          	or	a5,a5,a2
    80001b28:	03800813          	li	a6,56
    80001b2c:	00100613          	li	a2,1
    80001b30:	00d84e63          	blt	a6,a3,80001b4c <__adddf3+0x2e0>
    80001b34:	04000613          	li	a2,64
    80001b38:	00d7d833          	srl	a6,a5,a3
    80001b3c:	40d606bb          	subw	a3,a2,a3
    80001b40:	00d797b3          	sll	a5,a5,a3
    80001b44:	00f037b3          	snez	a5,a5
    80001b48:	00f86633          	or	a2,a6,a5
    80001b4c:	40c707b3          	sub	a5,a4,a2
    80001b50:	fa1ff06f          	j	80001af0 <__adddf3+0x284>
    80001b54:	00140693          	addi	a3,s0,1
    80001b58:	7fe6f693          	andi	a3,a3,2046
    80001b5c:	06069063          	bnez	a3,80001bbc <__adddf3+0x350>
    80001b60:	04041263          	bnez	s0,80001ba4 <__adddf3+0x338>
    80001b64:	00079c63          	bnez	a5,80001b7c <__adddf3+0x310>
    80001b68:	00000493          	li	s1,0
    80001b6c:	0e070663          	beqz	a4,80001c58 <__adddf3+0x3ec>
    80001b70:	00070793          	mv	a5,a4
    80001b74:	00058493          	mv	s1,a1
    80001b78:	d9dff06f          	j	80001914 <__adddf3+0xa8>
    80001b7c:	d8070ce3          	beqz	a4,80001914 <__adddf3+0xa8>
    80001b80:	40e786b3          	sub	a3,a5,a4
    80001b84:	0376d613          	srli	a2,a3,0x37
    80001b88:	00167613          	andi	a2,a2,1
    80001b8c:	40f707b3          	sub	a5,a4,a5
    80001b90:	fe0612e3          	bnez	a2,80001b74 <__adddf3+0x308>
    80001b94:	00000793          	li	a5,0
    80001b98:	08068263          	beqz	a3,80001c1c <__adddf3+0x3b0>
    80001b9c:	00068793          	mv	a5,a3
    80001ba0:	d75ff06f          	j	80001914 <__adddf3+0xa8>
    80001ba4:	e80792e3          	bnez	a5,80001a28 <__adddf3+0x1bc>
    80001ba8:	e80702e3          	beqz	a4,80001a2c <__adddf3+0x1c0>
    80001bac:	00070793          	mv	a5,a4
    80001bb0:	00058493          	mv	s1,a1
    80001bb4:	7ff00413          	li	s0,2047
    80001bb8:	d5dff06f          	j	80001914 <__adddf3+0xa8>
    80001bbc:	40e78933          	sub	s2,a5,a4
    80001bc0:	03795693          	srli	a3,s2,0x37
    80001bc4:	0016f693          	andi	a3,a3,1
    80001bc8:	04068463          	beqz	a3,80001c10 <__adddf3+0x3a4>
    80001bcc:	40f70933          	sub	s2,a4,a5
    80001bd0:	00058493          	mv	s1,a1
    80001bd4:	00090513          	mv	a0,s2
    80001bd8:	084010ef          	jal	ra,80002c5c <__clzdi2>
    80001bdc:	ff85079b          	addiw	a5,a0,-8
    80001be0:	00f91933          	sll	s2,s2,a5
    80001be4:	0487c063          	blt	a5,s0,80001c24 <__adddf3+0x3b8>
    80001be8:	4087853b          	subw	a0,a5,s0
    80001bec:	0015051b          	addiw	a0,a0,1
    80001bf0:	04000713          	li	a4,64
    80001bf4:	40a7073b          	subw	a4,a4,a0
    80001bf8:	00a957b3          	srl	a5,s2,a0
    80001bfc:	00e91933          	sll	s2,s2,a4
    80001c00:	01203933          	snez	s2,s2
    80001c04:	0127e7b3          	or	a5,a5,s2
    80001c08:	00000413          	li	s0,0
    80001c0c:	d09ff06f          	j	80001914 <__adddf3+0xa8>
    80001c10:	fc0912e3          	bnez	s2,80001bd4 <__adddf3+0x368>
    80001c14:	00000793          	li	a5,0
    80001c18:	00000413          	li	s0,0
    80001c1c:	00000493          	li	s1,0
    80001c20:	0380006f          	j	80001c58 <__adddf3+0x3ec>
    80001c24:	40f40433          	sub	s0,s0,a5
    80001c28:	fff00793          	li	a5,-1
    80001c2c:	03779793          	slli	a5,a5,0x37
    80001c30:	fff78793          	addi	a5,a5,-1
    80001c34:	00f977b3          	and	a5,s2,a5
    80001c38:	cddff06f          	j	80001914 <__adddf3+0xa8>
    80001c3c:	00070793          	mv	a5,a4
    80001c40:	00050413          	mv	s0,a0
    80001c44:	cd1ff06f          	j	80001914 <__adddf3+0xa8>
    80001c48:	00070793          	mv	a5,a4
    80001c4c:	cc9ff06f          	j	80001914 <__adddf3+0xa8>
    80001c50:	7ff00413          	li	s0,2047
    80001c54:	00000793          	li	a5,0
    80001c58:	0377d713          	srli	a4,a5,0x37
    80001c5c:	00177713          	andi	a4,a4,1
    80001c60:	02070063          	beqz	a4,80001c80 <__adddf3+0x414>
    80001c64:	00140413          	addi	s0,s0,1
    80001c68:	7ff00713          	li	a4,2047
    80001c6c:	06e40863          	beq	s0,a4,80001cdc <__adddf3+0x470>
    80001c70:	fff00713          	li	a4,-1
    80001c74:	03771713          	slli	a4,a4,0x37
    80001c78:	fff70713          	addi	a4,a4,-1
    80001c7c:	00e7f7b3          	and	a5,a5,a4
    80001c80:	7ff00713          	li	a4,2047
    80001c84:	0037d793          	srli	a5,a5,0x3
    80001c88:	00e41a63          	bne	s0,a4,80001c9c <__adddf3+0x430>
    80001c8c:	00078863          	beqz	a5,80001c9c <__adddf3+0x430>
    80001c90:	00100793          	li	a5,1
    80001c94:	03379793          	slli	a5,a5,0x33
    80001c98:	00000493          	li	s1,0
    80001c9c:	7ff47413          	andi	s0,s0,2047
    80001ca0:	00c79793          	slli	a5,a5,0xc
    80001ca4:	03441413          	slli	s0,s0,0x34
    80001ca8:	00c7d793          	srli	a5,a5,0xc
    80001cac:	00f46433          	or	s0,s0,a5
    80001cb0:	03f49513          	slli	a0,s1,0x3f
    80001cb4:	01813083          	ld	ra,24(sp)
    80001cb8:	00a46533          	or	a0,s0,a0
    80001cbc:	01013403          	ld	s0,16(sp)
    80001cc0:	00813483          	ld	s1,8(sp)
    80001cc4:	00013903          	ld	s2,0(sp)
    80001cc8:	02010113          	addi	sp,sp,32
    80001ccc:	00008067          	ret
    80001cd0:	00070793          	mv	a5,a4
    80001cd4:	00050413          	mv	s0,a0
    80001cd8:	e9dff06f          	j	80001b74 <__adddf3+0x308>
    80001cdc:	00000793          	li	a5,0
    80001ce0:	fa1ff06f          	j	80001c80 <__adddf3+0x414>

0000000080001ce4 <__divdf3>:
    80001ce4:	fc010113          	addi	sp,sp,-64
    80001ce8:	02913423          	sd	s1,40(sp)
    80001cec:	03455493          	srli	s1,a0,0x34
    80001cf0:	03213023          	sd	s2,32(sp)
    80001cf4:	01313c23          	sd	s3,24(sp)
    80001cf8:	01413823          	sd	s4,16(sp)
    80001cfc:	00c51993          	slli	s3,a0,0xc
    80001d00:	02113c23          	sd	ra,56(sp)
    80001d04:	02813823          	sd	s0,48(sp)
    80001d08:	01513423          	sd	s5,8(sp)
    80001d0c:	7ff4f493          	andi	s1,s1,2047
    80001d10:	00058a13          	mv	s4,a1
    80001d14:	00c9d993          	srli	s3,s3,0xc
    80001d18:	03f55913          	srli	s2,a0,0x3f
    80001d1c:	08048a63          	beqz	s1,80001db0 <__divdf3+0xcc>
    80001d20:	7ff00793          	li	a5,2047
    80001d24:	0af48863          	beq	s1,a5,80001dd4 <__divdf3+0xf0>
    80001d28:	00100793          	li	a5,1
    80001d2c:	00399993          	slli	s3,s3,0x3
    80001d30:	03779793          	slli	a5,a5,0x37
    80001d34:	00f9e9b3          	or	s3,s3,a5
    80001d38:	c0148493          	addi	s1,s1,-1023
    80001d3c:	00000a93          	li	s5,0
    80001d40:	034a5793          	srli	a5,s4,0x34
    80001d44:	00ca1413          	slli	s0,s4,0xc
    80001d48:	7ff7f793          	andi	a5,a5,2047
    80001d4c:	00c45413          	srli	s0,s0,0xc
    80001d50:	03fa5a13          	srli	s4,s4,0x3f
    80001d54:	0a078063          	beqz	a5,80001df4 <__divdf3+0x110>
    80001d58:	7ff00713          	li	a4,2047
    80001d5c:	0ae78e63          	beq	a5,a4,80001e18 <__divdf3+0x134>
    80001d60:	00100713          	li	a4,1
    80001d64:	00341413          	slli	s0,s0,0x3
    80001d68:	03771713          	slli	a4,a4,0x37
    80001d6c:	00e46433          	or	s0,s0,a4
    80001d70:	c0178793          	addi	a5,a5,-1023
    80001d74:	00000713          	li	a4,0
    80001d78:	40f484b3          	sub	s1,s1,a5
    80001d7c:	002a9793          	slli	a5,s5,0x2
    80001d80:	00e7e7b3          	or	a5,a5,a4
    80001d84:	fff78793          	addi	a5,a5,-1
    80001d88:	00e00613          	li	a2,14
    80001d8c:	014946b3          	xor	a3,s2,s4
    80001d90:	0af66463          	bltu	a2,a5,80001e38 <__divdf3+0x154>
    80001d94:	00001617          	auipc	a2,0x1
    80001d98:	09460613          	addi	a2,a2,148 # 80002e28 <pow10.0+0x50>
    80001d9c:	00279793          	slli	a5,a5,0x2
    80001da0:	00c787b3          	add	a5,a5,a2
    80001da4:	0007a783          	lw	a5,0(a5)
    80001da8:	00c787b3          	add	a5,a5,a2
    80001dac:	00078067          	jr	a5
    80001db0:	02098c63          	beqz	s3,80001de8 <__divdf3+0x104>
    80001db4:	00098513          	mv	a0,s3
    80001db8:	6a5000ef          	jal	ra,80002c5c <__clzdi2>
    80001dbc:	0005079b          	sext.w	a5,a0
    80001dc0:	c0d00493          	li	s1,-1011
    80001dc4:	ff85051b          	addiw	a0,a0,-8
    80001dc8:	00a999b3          	sll	s3,s3,a0
    80001dcc:	40f484b3          	sub	s1,s1,a5
    80001dd0:	f6dff06f          	j	80001d3c <__divdf3+0x58>
    80001dd4:	7ff00493          	li	s1,2047
    80001dd8:	00200a93          	li	s5,2
    80001ddc:	f60982e3          	beqz	s3,80001d40 <__divdf3+0x5c>
    80001de0:	00300a93          	li	s5,3
    80001de4:	f5dff06f          	j	80001d40 <__divdf3+0x5c>
    80001de8:	00000493          	li	s1,0
    80001dec:	00100a93          	li	s5,1
    80001df0:	f51ff06f          	j	80001d40 <__divdf3+0x5c>
    80001df4:	02040c63          	beqz	s0,80001e2c <__divdf3+0x148>
    80001df8:	00040513          	mv	a0,s0
    80001dfc:	661000ef          	jal	ra,80002c5c <__clzdi2>
    80001e00:	0005071b          	sext.w	a4,a0
    80001e04:	c0d00793          	li	a5,-1011
    80001e08:	ff85051b          	addiw	a0,a0,-8
    80001e0c:	00a41433          	sll	s0,s0,a0
    80001e10:	40e787b3          	sub	a5,a5,a4
    80001e14:	f61ff06f          	j	80001d74 <__divdf3+0x90>
    80001e18:	7ff00793          	li	a5,2047
    80001e1c:	00200713          	li	a4,2
    80001e20:	f4040ce3          	beqz	s0,80001d78 <__divdf3+0x94>
    80001e24:	00300713          	li	a4,3
    80001e28:	f51ff06f          	j	80001d78 <__divdf3+0x94>
    80001e2c:	00000793          	li	a5,0
    80001e30:	00100713          	li	a4,1
    80001e34:	f45ff06f          	j	80001d78 <__divdf3+0x94>
    80001e38:	00841613          	slli	a2,s0,0x8
    80001e3c:	1289f463          	bgeu	s3,s0,80001f64 <__divdf3+0x280>
    80001e40:	fff48493          	addi	s1,s1,-1
    80001e44:	00000793          	li	a5,0
    80001e48:	02065593          	srli	a1,a2,0x20
    80001e4c:	02b9d833          	divu	a6,s3,a1
    80001e50:	fff00713          	li	a4,-1
    80001e54:	02075713          	srli	a4,a4,0x20
    80001e58:	00e67733          	and	a4,a2,a4
    80001e5c:	0207d793          	srli	a5,a5,0x20
    80001e60:	02b9f9b3          	remu	s3,s3,a1
    80001e64:	00080413          	mv	s0,a6
    80001e68:	03070533          	mul	a0,a4,a6
    80001e6c:	02099993          	slli	s3,s3,0x20
    80001e70:	0137e7b3          	or	a5,a5,s3
    80001e74:	00a7fe63          	bgeu	a5,a0,80001e90 <__divdf3+0x1ac>
    80001e78:	00c787b3          	add	a5,a5,a2
    80001e7c:	fff80413          	addi	s0,a6,-1
    80001e80:	00c7e863          	bltu	a5,a2,80001e90 <__divdf3+0x1ac>
    80001e84:	00a7f663          	bgeu	a5,a0,80001e90 <__divdf3+0x1ac>
    80001e88:	ffe80413          	addi	s0,a6,-2
    80001e8c:	00c787b3          	add	a5,a5,a2
    80001e90:	40a787b3          	sub	a5,a5,a0
    80001e94:	02b7d533          	divu	a0,a5,a1
    80001e98:	02b7f7b3          	remu	a5,a5,a1
    80001e9c:	00050593          	mv	a1,a0
    80001ea0:	02a70733          	mul	a4,a4,a0
    80001ea4:	02079793          	slli	a5,a5,0x20
    80001ea8:	00e7fe63          	bgeu	a5,a4,80001ec4 <__divdf3+0x1e0>
    80001eac:	00c787b3          	add	a5,a5,a2
    80001eb0:	fff50593          	addi	a1,a0,-1
    80001eb4:	00c7e863          	bltu	a5,a2,80001ec4 <__divdf3+0x1e0>
    80001eb8:	00e7f663          	bgeu	a5,a4,80001ec4 <__divdf3+0x1e0>
    80001ebc:	ffe50593          	addi	a1,a0,-2
    80001ec0:	00c787b3          	add	a5,a5,a2
    80001ec4:	02041413          	slli	s0,s0,0x20
    80001ec8:	40e787b3          	sub	a5,a5,a4
    80001ecc:	00b46433          	or	s0,s0,a1
    80001ed0:	00f037b3          	snez	a5,a5
    80001ed4:	00f46433          	or	s0,s0,a5
    80001ed8:	3ff48713          	addi	a4,s1,1023
    80001edc:	0ee05063          	blez	a4,80001fbc <__divdf3+0x2d8>
    80001ee0:	00747793          	andi	a5,s0,7
    80001ee4:	00078a63          	beqz	a5,80001ef8 <__divdf3+0x214>
    80001ee8:	00f47793          	andi	a5,s0,15
    80001eec:	00400613          	li	a2,4
    80001ef0:	00c78463          	beq	a5,a2,80001ef8 <__divdf3+0x214>
    80001ef4:	00440413          	addi	s0,s0,4
    80001ef8:	03845793          	srli	a5,s0,0x38
    80001efc:	0017f793          	andi	a5,a5,1
    80001f00:	00078c63          	beqz	a5,80001f18 <__divdf3+0x234>
    80001f04:	fff00793          	li	a5,-1
    80001f08:	03879793          	slli	a5,a5,0x38
    80001f0c:	fff78793          	addi	a5,a5,-1
    80001f10:	00f47433          	and	s0,s0,a5
    80001f14:	40048713          	addi	a4,s1,1024
    80001f18:	7fe00793          	li	a5,2046
    80001f1c:	06e7cc63          	blt	a5,a4,80001f94 <__divdf3+0x2b0>
    80001f20:	00345793          	srli	a5,s0,0x3
    80001f24:	03813083          	ld	ra,56(sp)
    80001f28:	03013403          	ld	s0,48(sp)
    80001f2c:	7ff77713          	andi	a4,a4,2047
    80001f30:	00c79793          	slli	a5,a5,0xc
    80001f34:	03471713          	slli	a4,a4,0x34
    80001f38:	00c7d793          	srli	a5,a5,0xc
    80001f3c:	00f76733          	or	a4,a4,a5
    80001f40:	03f69513          	slli	a0,a3,0x3f
    80001f44:	02813483          	ld	s1,40(sp)
    80001f48:	02013903          	ld	s2,32(sp)
    80001f4c:	01813983          	ld	s3,24(sp)
    80001f50:	01013a03          	ld	s4,16(sp)
    80001f54:	00813a83          	ld	s5,8(sp)
    80001f58:	00a76533          	or	a0,a4,a0
    80001f5c:	04010113          	addi	sp,sp,64
    80001f60:	00008067          	ret
    80001f64:	03f99793          	slli	a5,s3,0x3f
    80001f68:	0019d993          	srli	s3,s3,0x1
    80001f6c:	eddff06f          	j	80001e48 <__divdf3+0x164>
    80001f70:	00090693          	mv	a3,s2
    80001f74:	00098413          	mv	s0,s3
    80001f78:	000a8713          	mv	a4,s5
    80001f7c:	00300793          	li	a5,3
    80001f80:	08f70c63          	beq	a4,a5,80002018 <__divdf3+0x334>
    80001f84:	00100793          	li	a5,1
    80001f88:	0af70263          	beq	a4,a5,8000202c <__divdf3+0x348>
    80001f8c:	00200793          	li	a5,2
    80001f90:	f4f714e3          	bne	a4,a5,80001ed8 <__divdf3+0x1f4>
    80001f94:	00000793          	li	a5,0
    80001f98:	7ff00713          	li	a4,2047
    80001f9c:	f89ff06f          	j	80001f24 <__divdf3+0x240>
    80001fa0:	000a0693          	mv	a3,s4
    80001fa4:	fd9ff06f          	j	80001f7c <__divdf3+0x298>
    80001fa8:	00100413          	li	s0,1
    80001fac:	03341413          	slli	s0,s0,0x33
    80001fb0:	00000693          	li	a3,0
    80001fb4:	00300713          	li	a4,3
    80001fb8:	fc5ff06f          	j	80001f7c <__divdf3+0x298>
    80001fbc:	00100793          	li	a5,1
    80001fc0:	40e78733          	sub	a4,a5,a4
    80001fc4:	03800793          	li	a5,56
    80001fc8:	06e7c263          	blt	a5,a4,8000202c <__divdf3+0x348>
    80001fcc:	04000613          	li	a2,64
    80001fd0:	00e457b3          	srl	a5,s0,a4
    80001fd4:	40e6073b          	subw	a4,a2,a4
    80001fd8:	00e41433          	sll	s0,s0,a4
    80001fdc:	00803433          	snez	s0,s0
    80001fe0:	0087e7b3          	or	a5,a5,s0
    80001fe4:	0077f713          	andi	a4,a5,7
    80001fe8:	00070a63          	beqz	a4,80001ffc <__divdf3+0x318>
    80001fec:	00f7f713          	andi	a4,a5,15
    80001ff0:	00400613          	li	a2,4
    80001ff4:	00c70463          	beq	a4,a2,80001ffc <__divdf3+0x318>
    80001ff8:	00478793          	addi	a5,a5,4
    80001ffc:	0377d713          	srli	a4,a5,0x37
    80002000:	00177713          	andi	a4,a4,1
    80002004:	0037d793          	srli	a5,a5,0x3
    80002008:	f0070ee3          	beqz	a4,80001f24 <__divdf3+0x240>
    8000200c:	00000793          	li	a5,0
    80002010:	00100713          	li	a4,1
    80002014:	f11ff06f          	j	80001f24 <__divdf3+0x240>
    80002018:	00100793          	li	a5,1
    8000201c:	03379793          	slli	a5,a5,0x33
    80002020:	7ff00713          	li	a4,2047
    80002024:	00000693          	li	a3,0
    80002028:	efdff06f          	j	80001f24 <__divdf3+0x240>
    8000202c:	00000793          	li	a5,0
    80002030:	00000713          	li	a4,0
    80002034:	ef1ff06f          	j	80001f24 <__divdf3+0x240>

0000000080002038 <__eqdf2>:
    80002038:	fff00793          	li	a5,-1
    8000203c:	03455613          	srli	a2,a0,0x34
    80002040:	00c7d793          	srli	a5,a5,0xc
    80002044:	0345d813          	srli	a6,a1,0x34
    80002048:	7ff67613          	andi	a2,a2,2047
    8000204c:	7ff00693          	li	a3,2047
    80002050:	00a7f8b3          	and	a7,a5,a0
    80002054:	03f55713          	srli	a4,a0,0x3f
    80002058:	00b7f7b3          	and	a5,a5,a1
    8000205c:	7ff87813          	andi	a6,a6,2047
    80002060:	03f5d593          	srli	a1,a1,0x3f
    80002064:	00d61e63          	bne	a2,a3,80002080 <__eqdf2+0x48>
    80002068:	00100513          	li	a0,1
    8000206c:	04089663          	bnez	a7,800020b8 <__eqdf2+0x80>
    80002070:	00100693          	li	a3,1
    80002074:	02c81863          	bne	a6,a2,800020a4 <__eqdf2+0x6c>
    80002078:	00078c63          	beqz	a5,80002090 <__eqdf2+0x58>
    8000207c:	00008067          	ret
    80002080:	02d80663          	beq	a6,a3,800020ac <__eqdf2+0x74>
    80002084:	00100693          	li	a3,1
    80002088:	01061e63          	bne	a2,a6,800020a4 <__eqdf2+0x6c>
    8000208c:	00f89c63          	bne	a7,a5,800020a4 <__eqdf2+0x6c>
    80002090:	00000693          	li	a3,0
    80002094:	00b70863          	beq	a4,a1,800020a4 <__eqdf2+0x6c>
    80002098:	00100693          	li	a3,1
    8000209c:	00061463          	bnez	a2,800020a4 <__eqdf2+0x6c>
    800020a0:	011036b3          	snez	a3,a7
    800020a4:	00068513          	mv	a0,a3
    800020a8:	00008067          	ret
    800020ac:	00100513          	li	a0,1
    800020b0:	00100693          	li	a3,1
    800020b4:	fe0788e3          	beqz	a5,800020a4 <__eqdf2+0x6c>
    800020b8:	00008067          	ret

00000000800020bc <__gedf2>:
    800020bc:	fff00713          	li	a4,-1
    800020c0:	00c75713          	srli	a4,a4,0xc
    800020c4:	03455693          	srli	a3,a0,0x34
    800020c8:	00a77633          	and	a2,a4,a0
    800020cc:	03f55793          	srli	a5,a0,0x3f
    800020d0:	7ff6f693          	andi	a3,a3,2047
    800020d4:	0345d513          	srli	a0,a1,0x34
    800020d8:	7ff00813          	li	a6,2047
    800020dc:	00b77733          	and	a4,a4,a1
    800020e0:	7ff57513          	andi	a0,a0,2047
    800020e4:	03f5d593          	srli	a1,a1,0x3f
    800020e8:	01069863          	bne	a3,a6,800020f8 <__gedf2+0x3c>
    800020ec:	06060c63          	beqz	a2,80002164 <__gedf2+0xa8>
    800020f0:	ffe00513          	li	a0,-2
    800020f4:	00008067          	ret
    800020f8:	01051463          	bne	a0,a6,80002100 <__gedf2+0x44>
    800020fc:	fe071ae3          	bnez	a4,800020f0 <__gedf2+0x34>
    80002100:	06069463          	bnez	a3,80002168 <__gedf2+0xac>
    80002104:	00051463          	bnez	a0,8000210c <__gedf2+0x50>
    80002108:	04070a63          	beqz	a4,8000215c <__gedf2+0xa0>
    8000210c:	00060e63          	beqz	a2,80002128 <__gedf2+0x6c>
    80002110:	00b79463          	bne	a5,a1,80002118 <__gedf2+0x5c>
    80002114:	02d55263          	bge	a0,a3,80002138 <__gedf2+0x7c>
    80002118:	00100513          	li	a0,1
    8000211c:	02078e63          	beqz	a5,80002158 <__gedf2+0x9c>
    80002120:	fff00513          	li	a0,-1
    80002124:	00008067          	ret
    80002128:	fff00513          	li	a0,-1
    8000212c:	02058663          	beqz	a1,80002158 <__gedf2+0x9c>
    80002130:	00058513          	mv	a0,a1
    80002134:	00008067          	ret
    80002138:	00a6da63          	bge	a3,a0,8000214c <__gedf2+0x90>
    8000213c:	fff00513          	li	a0,-1
    80002140:	00078c63          	beqz	a5,80002158 <__gedf2+0x9c>
    80002144:	00078513          	mv	a0,a5
    80002148:	00008067          	ret
    8000214c:	fcc766e3          	bltu	a4,a2,80002118 <__gedf2+0x5c>
    80002150:	00000513          	li	a0,0
    80002154:	fee664e3          	bltu	a2,a4,8000213c <__gedf2+0x80>
    80002158:	00008067          	ret
    8000215c:	fe060ee3          	beqz	a2,80002158 <__gedf2+0x9c>
    80002160:	fb9ff06f          	j	80002118 <__gedf2+0x5c>
    80002164:	f8d50ce3          	beq	a0,a3,800020fc <__gedf2+0x40>
    80002168:	fa0514e3          	bnez	a0,80002110 <__gedf2+0x54>
    8000216c:	fa0706e3          	beqz	a4,80002118 <__gedf2+0x5c>
    80002170:	fa1ff06f          	j	80002110 <__gedf2+0x54>

0000000080002174 <__ledf2>:
    80002174:	fff00713          	li	a4,-1
    80002178:	00c75713          	srli	a4,a4,0xc
    8000217c:	03455693          	srli	a3,a0,0x34
    80002180:	00a77633          	and	a2,a4,a0
    80002184:	03f55793          	srli	a5,a0,0x3f
    80002188:	7ff6f693          	andi	a3,a3,2047
    8000218c:	0345d513          	srli	a0,a1,0x34
    80002190:	7ff00813          	li	a6,2047
    80002194:	00b77733          	and	a4,a4,a1
    80002198:	7ff57513          	andi	a0,a0,2047
    8000219c:	03f5d593          	srli	a1,a1,0x3f
    800021a0:	01069863          	bne	a3,a6,800021b0 <__ledf2+0x3c>
    800021a4:	06060c63          	beqz	a2,8000221c <__ledf2+0xa8>
    800021a8:	00200513          	li	a0,2
    800021ac:	00008067          	ret
    800021b0:	01051463          	bne	a0,a6,800021b8 <__ledf2+0x44>
    800021b4:	fe071ae3          	bnez	a4,800021a8 <__ledf2+0x34>
    800021b8:	06069463          	bnez	a3,80002220 <__ledf2+0xac>
    800021bc:	00051463          	bnez	a0,800021c4 <__ledf2+0x50>
    800021c0:	04070a63          	beqz	a4,80002214 <__ledf2+0xa0>
    800021c4:	00060e63          	beqz	a2,800021e0 <__ledf2+0x6c>
    800021c8:	00b79463          	bne	a5,a1,800021d0 <__ledf2+0x5c>
    800021cc:	02d55263          	bge	a0,a3,800021f0 <__ledf2+0x7c>
    800021d0:	00100513          	li	a0,1
    800021d4:	02078e63          	beqz	a5,80002210 <__ledf2+0x9c>
    800021d8:	fff00513          	li	a0,-1
    800021dc:	00008067          	ret
    800021e0:	fff00513          	li	a0,-1
    800021e4:	02058663          	beqz	a1,80002210 <__ledf2+0x9c>
    800021e8:	00058513          	mv	a0,a1
    800021ec:	00008067          	ret
    800021f0:	00a6da63          	bge	a3,a0,80002204 <__ledf2+0x90>
    800021f4:	fff00513          	li	a0,-1
    800021f8:	00078c63          	beqz	a5,80002210 <__ledf2+0x9c>
    800021fc:	00078513          	mv	a0,a5
    80002200:	00008067          	ret
    80002204:	fcc766e3          	bltu	a4,a2,800021d0 <__ledf2+0x5c>
    80002208:	00000513          	li	a0,0
    8000220c:	fee664e3          	bltu	a2,a4,800021f4 <__ledf2+0x80>
    80002210:	00008067          	ret
    80002214:	fe060ee3          	beqz	a2,80002210 <__ledf2+0x9c>
    80002218:	fb9ff06f          	j	800021d0 <__ledf2+0x5c>
    8000221c:	f8d50ce3          	beq	a0,a3,800021b4 <__ledf2+0x40>
    80002220:	fa0514e3          	bnez	a0,800021c8 <__ledf2+0x54>
    80002224:	fa0706e3          	beqz	a4,800021d0 <__ledf2+0x5c>
    80002228:	fa1ff06f          	j	800021c8 <__ledf2+0x54>

000000008000222c <__muldf3>:
    8000222c:	fc010113          	addi	sp,sp,-64
    80002230:	03213023          	sd	s2,32(sp)
    80002234:	03455913          	srli	s2,a0,0x34
    80002238:	02913423          	sd	s1,40(sp)
    8000223c:	01313c23          	sd	s3,24(sp)
    80002240:	01513423          	sd	s5,8(sp)
    80002244:	00c51493          	slli	s1,a0,0xc
    80002248:	02113c23          	sd	ra,56(sp)
    8000224c:	02813823          	sd	s0,48(sp)
    80002250:	01413823          	sd	s4,16(sp)
    80002254:	7ff97913          	andi	s2,s2,2047
    80002258:	00058a93          	mv	s5,a1
    8000225c:	00c4d493          	srli	s1,s1,0xc
    80002260:	03f55993          	srli	s3,a0,0x3f
    80002264:	1a090663          	beqz	s2,80002410 <__muldf3+0x1e4>
    80002268:	7ff00793          	li	a5,2047
    8000226c:	1cf90463          	beq	s2,a5,80002434 <__muldf3+0x208>
    80002270:	00100793          	li	a5,1
    80002274:	00349493          	slli	s1,s1,0x3
    80002278:	03779793          	slli	a5,a5,0x37
    8000227c:	00f4e4b3          	or	s1,s1,a5
    80002280:	c0190913          	addi	s2,s2,-1023
    80002284:	00000a13          	li	s4,0
    80002288:	034ad793          	srli	a5,s5,0x34
    8000228c:	00ca9413          	slli	s0,s5,0xc
    80002290:	7ff7f793          	andi	a5,a5,2047
    80002294:	00c45413          	srli	s0,s0,0xc
    80002298:	03fada93          	srli	s5,s5,0x3f
    8000229c:	1a078c63          	beqz	a5,80002454 <__muldf3+0x228>
    800022a0:	7ff00713          	li	a4,2047
    800022a4:	1ce78a63          	beq	a5,a4,80002478 <__muldf3+0x24c>
    800022a8:	00100713          	li	a4,1
    800022ac:	00341413          	slli	s0,s0,0x3
    800022b0:	03771713          	slli	a4,a4,0x37
    800022b4:	00e46433          	or	s0,s0,a4
    800022b8:	c0178793          	addi	a5,a5,-1023
    800022bc:	00000613          	li	a2,0
    800022c0:	002a1713          	slli	a4,s4,0x2
    800022c4:	00f90933          	add	s2,s2,a5
    800022c8:	00c76733          	or	a4,a4,a2
    800022cc:	00a00793          	li	a5,10
    800022d0:	0159c6b3          	xor	a3,s3,s5
    800022d4:	00190513          	addi	a0,s2,1
    800022d8:	20e7c863          	blt	a5,a4,800024e8 <__muldf3+0x2bc>
    800022dc:	00200793          	li	a5,2
    800022e0:	1ae7cc63          	blt	a5,a4,80002498 <__muldf3+0x26c>
    800022e4:	fff70713          	addi	a4,a4,-1
    800022e8:	00100793          	li	a5,1
    800022ec:	1ce7f863          	bgeu	a5,a4,800024bc <__muldf3+0x290>
    800022f0:	fff00713          	li	a4,-1
    800022f4:	02075713          	srli	a4,a4,0x20
    800022f8:	0204d613          	srli	a2,s1,0x20
    800022fc:	02045793          	srli	a5,s0,0x20
    80002300:	00e4f4b3          	and	s1,s1,a4
    80002304:	00e47733          	and	a4,s0,a4
    80002308:	02970833          	mul	a6,a4,s1
    8000230c:	02e60733          	mul	a4,a2,a4
    80002310:	02f60633          	mul	a2,a2,a5
    80002314:	029787b3          	mul	a5,a5,s1
    80002318:	00e785b3          	add	a1,a5,a4
    8000231c:	02085793          	srli	a5,a6,0x20
    80002320:	00b787b3          	add	a5,a5,a1
    80002324:	00e7f863          	bgeu	a5,a4,80002334 <__muldf3+0x108>
    80002328:	00100713          	li	a4,1
    8000232c:	02071713          	slli	a4,a4,0x20
    80002330:	00e60633          	add	a2,a2,a4
    80002334:	fff00593          	li	a1,-1
    80002338:	0205d593          	srli	a1,a1,0x20
    8000233c:	00b7f733          	and	a4,a5,a1
    80002340:	02071713          	slli	a4,a4,0x20
    80002344:	00b87833          	and	a6,a6,a1
    80002348:	01070733          	add	a4,a4,a6
    8000234c:	00971413          	slli	s0,a4,0x9
    80002350:	0207d793          	srli	a5,a5,0x20
    80002354:	00803433          	snez	s0,s0
    80002358:	03775713          	srli	a4,a4,0x37
    8000235c:	00c787b3          	add	a5,a5,a2
    80002360:	00979793          	slli	a5,a5,0x9
    80002364:	00e46433          	or	s0,s0,a4
    80002368:	0087e433          	or	s0,a5,s0
    8000236c:	0387d793          	srli	a5,a5,0x38
    80002370:	0017f793          	andi	a5,a5,1
    80002374:	1a078463          	beqz	a5,8000251c <__muldf3+0x2f0>
    80002378:	00145793          	srli	a5,s0,0x1
    8000237c:	00147413          	andi	s0,s0,1
    80002380:	0087e433          	or	s0,a5,s0
    80002384:	3ff50713          	addi	a4,a0,1023
    80002388:	18e05e63          	blez	a4,80002524 <__muldf3+0x2f8>
    8000238c:	00747793          	andi	a5,s0,7
    80002390:	00078a63          	beqz	a5,800023a4 <__muldf3+0x178>
    80002394:	00f47793          	andi	a5,s0,15
    80002398:	00400613          	li	a2,4
    8000239c:	00c78463          	beq	a5,a2,800023a4 <__muldf3+0x178>
    800023a0:	00440413          	addi	s0,s0,4
    800023a4:	03845793          	srli	a5,s0,0x38
    800023a8:	0017f793          	andi	a5,a5,1
    800023ac:	00078c63          	beqz	a5,800023c4 <__muldf3+0x198>
    800023b0:	fff00793          	li	a5,-1
    800023b4:	03879793          	slli	a5,a5,0x38
    800023b8:	fff78793          	addi	a5,a5,-1
    800023bc:	00f47433          	and	s0,s0,a5
    800023c0:	40050713          	addi	a4,a0,1024
    800023c4:	7fe00793          	li	a5,2046
    800023c8:	1ce7c663          	blt	a5,a4,80002594 <__muldf3+0x368>
    800023cc:	00345793          	srli	a5,s0,0x3
    800023d0:	03813083          	ld	ra,56(sp)
    800023d4:	03013403          	ld	s0,48(sp)
    800023d8:	7ff77713          	andi	a4,a4,2047
    800023dc:	00c79793          	slli	a5,a5,0xc
    800023e0:	03471713          	slli	a4,a4,0x34
    800023e4:	00c7d793          	srli	a5,a5,0xc
    800023e8:	00f76733          	or	a4,a4,a5
    800023ec:	03f69513          	slli	a0,a3,0x3f
    800023f0:	02813483          	ld	s1,40(sp)
    800023f4:	02013903          	ld	s2,32(sp)
    800023f8:	01813983          	ld	s3,24(sp)
    800023fc:	01013a03          	ld	s4,16(sp)
    80002400:	00813a83          	ld	s5,8(sp)
    80002404:	00a76533          	or	a0,a4,a0
    80002408:	04010113          	addi	sp,sp,64
    8000240c:	00008067          	ret
    80002410:	02048c63          	beqz	s1,80002448 <__muldf3+0x21c>
    80002414:	00048513          	mv	a0,s1
    80002418:	045000ef          	jal	ra,80002c5c <__clzdi2>
    8000241c:	0005079b          	sext.w	a5,a0
    80002420:	c0d00913          	li	s2,-1011
    80002424:	ff85051b          	addiw	a0,a0,-8
    80002428:	00a494b3          	sll	s1,s1,a0
    8000242c:	40f90933          	sub	s2,s2,a5
    80002430:	e55ff06f          	j	80002284 <__muldf3+0x58>
    80002434:	7ff00913          	li	s2,2047
    80002438:	00200a13          	li	s4,2
    8000243c:	e40486e3          	beqz	s1,80002288 <__muldf3+0x5c>
    80002440:	00300a13          	li	s4,3
    80002444:	e45ff06f          	j	80002288 <__muldf3+0x5c>
    80002448:	00000913          	li	s2,0
    8000244c:	00100a13          	li	s4,1
    80002450:	e39ff06f          	j	80002288 <__muldf3+0x5c>
    80002454:	02040c63          	beqz	s0,8000248c <__muldf3+0x260>
    80002458:	00040513          	mv	a0,s0
    8000245c:	001000ef          	jal	ra,80002c5c <__clzdi2>
    80002460:	0005071b          	sext.w	a4,a0
    80002464:	c0d00793          	li	a5,-1011
    80002468:	ff85051b          	addiw	a0,a0,-8
    8000246c:	00a41433          	sll	s0,s0,a0
    80002470:	40e787b3          	sub	a5,a5,a4
    80002474:	e49ff06f          	j	800022bc <__muldf3+0x90>
    80002478:	7ff00793          	li	a5,2047
    8000247c:	00200613          	li	a2,2
    80002480:	e40400e3          	beqz	s0,800022c0 <__muldf3+0x94>
    80002484:	00300613          	li	a2,3
    80002488:	e39ff06f          	j	800022c0 <__muldf3+0x94>
    8000248c:	00000793          	li	a5,0
    80002490:	00100613          	li	a2,1
    80002494:	e2dff06f          	j	800022c0 <__muldf3+0x94>
    80002498:	00100793          	li	a5,1
    8000249c:	00e79733          	sll	a4,a5,a4
    800024a0:	53077593          	andi	a1,a4,1328
    800024a4:	04059c63          	bnez	a1,800024fc <__muldf3+0x2d0>
    800024a8:	24077593          	andi	a1,a4,576
    800024ac:	0c059c63          	bnez	a1,80002584 <__muldf3+0x358>
    800024b0:	08877713          	andi	a4,a4,136
    800024b4:	e2070ee3          	beqz	a4,800022f0 <__muldf3+0xc4>
    800024b8:	000a8693          	mv	a3,s5
    800024bc:	00200593          	li	a1,2
    800024c0:	00000793          	li	a5,0
    800024c4:	7ff00713          	li	a4,2047
    800024c8:	f0b604e3          	beq	a2,a1,800023d0 <__muldf3+0x1a4>
    800024cc:	00300793          	li	a5,3
    800024d0:	0af60863          	beq	a2,a5,80002580 <__muldf3+0x354>
    800024d4:	00100793          	li	a5,1
    800024d8:	eaf616e3          	bne	a2,a5,80002384 <__muldf3+0x158>
    800024dc:	00000793          	li	a5,0
    800024e0:	00000713          	li	a4,0
    800024e4:	eedff06f          	j	800023d0 <__muldf3+0x1a4>
    800024e8:	00f00793          	li	a5,15
    800024ec:	00f70e63          	beq	a4,a5,80002508 <__muldf3+0x2dc>
    800024f0:	00b00793          	li	a5,11
    800024f4:	fcf702e3          	beq	a4,a5,800024b8 <__muldf3+0x28c>
    800024f8:	00098693          	mv	a3,s3
    800024fc:	00048413          	mv	s0,s1
    80002500:	000a0613          	mv	a2,s4
    80002504:	fb9ff06f          	j	800024bc <__muldf3+0x290>
    80002508:	00100413          	li	s0,1
    8000250c:	03341413          	slli	s0,s0,0x33
    80002510:	00000693          	li	a3,0
    80002514:	00300613          	li	a2,3
    80002518:	fb5ff06f          	j	800024cc <__muldf3+0x2a0>
    8000251c:	00090513          	mv	a0,s2
    80002520:	e65ff06f          	j	80002384 <__muldf3+0x158>
    80002524:	00100793          	li	a5,1
    80002528:	40e78733          	sub	a4,a5,a4
    8000252c:	03800793          	li	a5,56
    80002530:	fae7c6e3          	blt	a5,a4,800024dc <__muldf3+0x2b0>
    80002534:	04000613          	li	a2,64
    80002538:	00e457b3          	srl	a5,s0,a4
    8000253c:	40e6073b          	subw	a4,a2,a4
    80002540:	00e41433          	sll	s0,s0,a4
    80002544:	00803433          	snez	s0,s0
    80002548:	0087e7b3          	or	a5,a5,s0
    8000254c:	0077f713          	andi	a4,a5,7
    80002550:	00070a63          	beqz	a4,80002564 <__muldf3+0x338>
    80002554:	00f7f713          	andi	a4,a5,15
    80002558:	00400613          	li	a2,4
    8000255c:	00c70463          	beq	a4,a2,80002564 <__muldf3+0x338>
    80002560:	00478793          	addi	a5,a5,4
    80002564:	0377d713          	srli	a4,a5,0x37
    80002568:	00177713          	andi	a4,a4,1
    8000256c:	0037d793          	srli	a5,a5,0x3
    80002570:	e60700e3          	beqz	a4,800023d0 <__muldf3+0x1a4>
    80002574:	00000793          	li	a5,0
    80002578:	00100713          	li	a4,1
    8000257c:	e55ff06f          	j	800023d0 <__muldf3+0x1a4>
    80002580:	00100793          	li	a5,1
    80002584:	03379793          	slli	a5,a5,0x33
    80002588:	7ff00713          	li	a4,2047
    8000258c:	00000693          	li	a3,0
    80002590:	e41ff06f          	j	800023d0 <__muldf3+0x1a4>
    80002594:	00000793          	li	a5,0
    80002598:	7ff00713          	li	a4,2047
    8000259c:	e35ff06f          	j	800023d0 <__muldf3+0x1a4>

00000000800025a0 <__subdf3>:
    800025a0:	fff00713          	li	a4,-1
    800025a4:	fe010113          	addi	sp,sp,-32
    800025a8:	00c75713          	srli	a4,a4,0xc
    800025ac:	0345d813          	srli	a6,a1,0x34
    800025b0:	03455613          	srli	a2,a0,0x34
    800025b4:	00a777b3          	and	a5,a4,a0
    800025b8:	00813823          	sd	s0,16(sp)
    800025bc:	00b77733          	and	a4,a4,a1
    800025c0:	00913423          	sd	s1,8(sp)
    800025c4:	7ff67613          	andi	a2,a2,2047
    800025c8:	00113c23          	sd	ra,24(sp)
    800025cc:	01213023          	sd	s2,0(sp)
    800025d0:	7ff87813          	andi	a6,a6,2047
    800025d4:	7ff00693          	li	a3,2047
    800025d8:	00060413          	mv	s0,a2
    800025dc:	03f55493          	srli	s1,a0,0x3f
    800025e0:	00379793          	slli	a5,a5,0x3
    800025e4:	03f5d593          	srli	a1,a1,0x3f
    800025e8:	00371713          	slli	a4,a4,0x3
    800025ec:	00d81463          	bne	a6,a3,800025f4 <__subdf3+0x54>
    800025f0:	00071463          	bnez	a4,800025f8 <__subdf3+0x58>
    800025f4:	0015c593          	xori	a1,a1,1
    800025f8:	410606bb          	subw	a3,a2,a6
    800025fc:	0006851b          	sext.w	a0,a3
    80002600:	1a959263          	bne	a1,s1,800027a4 <__subdf3+0x204>
    80002604:	0aa05a63          	blez	a0,800026b8 <__subdf3+0x118>
    80002608:	06081863          	bnez	a6,80002678 <__subdf3+0xd8>
    8000260c:	04070863          	beqz	a4,8000265c <__subdf3+0xbc>
    80002610:	fff6851b          	addiw	a0,a3,-1
    80002614:	04051063          	bnez	a0,80002654 <__subdf3+0xb4>
    80002618:	00e787b3          	add	a5,a5,a4
    8000261c:	0377d713          	srli	a4,a5,0x37
    80002620:	00177713          	andi	a4,a4,1
    80002624:	02070c63          	beqz	a4,8000265c <__subdf3+0xbc>
    80002628:	00140413          	addi	s0,s0,1
    8000262c:	7ff00713          	li	a4,2047
    80002630:	36e40863          	beq	s0,a4,800029a0 <__subdf3+0x400>
    80002634:	1ff00713          	li	a4,511
    80002638:	03671713          	slli	a4,a4,0x36
    8000263c:	0017f693          	andi	a3,a5,1
    80002640:	fff70713          	addi	a4,a4,-1
    80002644:	0017d793          	srli	a5,a5,0x1
    80002648:	00e7f7b3          	and	a5,a5,a4
    8000264c:	00d7e7b3          	or	a5,a5,a3
    80002650:	00c0006f          	j	8000265c <__subdf3+0xbc>
    80002654:	7ff00693          	li	a3,2047
    80002658:	02d61a63          	bne	a2,a3,8000268c <__subdf3+0xec>
    8000265c:	0077f713          	andi	a4,a5,7
    80002660:	34070263          	beqz	a4,800029a4 <__subdf3+0x404>
    80002664:	00f7f713          	andi	a4,a5,15
    80002668:	00400693          	li	a3,4
    8000266c:	32d70c63          	beq	a4,a3,800029a4 <__subdf3+0x404>
    80002670:	00478793          	addi	a5,a5,4
    80002674:	3300006f          	j	800029a4 <__subdf3+0x404>
    80002678:	7ff00693          	li	a3,2047
    8000267c:	fed600e3          	beq	a2,a3,8000265c <__subdf3+0xbc>
    80002680:	00100693          	li	a3,1
    80002684:	03769693          	slli	a3,a3,0x37
    80002688:	00d76733          	or	a4,a4,a3
    8000268c:	03800613          	li	a2,56
    80002690:	00100693          	li	a3,1
    80002694:	00a64e63          	blt	a2,a0,800026b0 <__subdf3+0x110>
    80002698:	04000693          	li	a3,64
    8000269c:	40a686bb          	subw	a3,a3,a0
    800026a0:	00a75633          	srl	a2,a4,a0
    800026a4:	00d71733          	sll	a4,a4,a3
    800026a8:	00e03733          	snez	a4,a4
    800026ac:	00e666b3          	or	a3,a2,a4
    800026b0:	00d787b3          	add	a5,a5,a3
    800026b4:	f69ff06f          	j	8000261c <__subdf3+0x7c>
    800026b8:	06050c63          	beqz	a0,80002730 <__subdf3+0x190>
    800026bc:	02061863          	bnez	a2,800026ec <__subdf3+0x14c>
    800026c0:	2c078463          	beqz	a5,80002988 <__subdf3+0x3e8>
    800026c4:	fff6c693          	not	a3,a3
    800026c8:	0006869b          	sext.w	a3,a3
    800026cc:	00069863          	bnez	a3,800026dc <__subdf3+0x13c>
    800026d0:	00e787b3          	add	a5,a5,a4
    800026d4:	00080413          	mv	s0,a6
    800026d8:	f45ff06f          	j	8000261c <__subdf3+0x7c>
    800026dc:	7ff00613          	li	a2,2047
    800026e0:	02c81263          	bne	a6,a2,80002704 <__subdf3+0x164>
    800026e4:	00070793          	mv	a5,a4
    800026e8:	2180006f          	j	80002900 <__subdf3+0x360>
    800026ec:	7ff00613          	li	a2,2047
    800026f0:	fec80ae3          	beq	a6,a2,800026e4 <__subdf3+0x144>
    800026f4:	00100613          	li	a2,1
    800026f8:	03761613          	slli	a2,a2,0x37
    800026fc:	40d006bb          	negw	a3,a3
    80002700:	00c7e7b3          	or	a5,a5,a2
    80002704:	03800593          	li	a1,56
    80002708:	00100613          	li	a2,1
    8000270c:	00d5ce63          	blt	a1,a3,80002728 <__subdf3+0x188>
    80002710:	04000613          	li	a2,64
    80002714:	00d7d5b3          	srl	a1,a5,a3
    80002718:	40d606bb          	subw	a3,a2,a3
    8000271c:	00d797b3          	sll	a5,a5,a3
    80002720:	00f037b3          	snez	a5,a5
    80002724:	00f5e633          	or	a2,a1,a5
    80002728:	00e607b3          	add	a5,a2,a4
    8000272c:	fa9ff06f          	j	800026d4 <__subdf3+0x134>
    80002730:	00160693          	addi	a3,a2,1
    80002734:	7fe6f593          	andi	a1,a3,2046
    80002738:	04059a63          	bnez	a1,8000278c <__subdf3+0x1ec>
    8000273c:	02061a63          	bnez	a2,80002770 <__subdf3+0x1d0>
    80002740:	24078a63          	beqz	a5,80002994 <__subdf3+0x3f4>
    80002744:	f0070ce3          	beqz	a4,8000265c <__subdf3+0xbc>
    80002748:	00e787b3          	add	a5,a5,a4
    8000274c:	0377d713          	srli	a4,a5,0x37
    80002750:	00177713          	andi	a4,a4,1
    80002754:	f00704e3          	beqz	a4,8000265c <__subdf3+0xbc>
    80002758:	fff00713          	li	a4,-1
    8000275c:	03771713          	slli	a4,a4,0x37
    80002760:	fff70713          	addi	a4,a4,-1
    80002764:	00e7f7b3          	and	a5,a5,a4
    80002768:	00100413          	li	s0,1
    8000276c:	ef1ff06f          	j	8000265c <__subdf3+0xbc>
    80002770:	f6078ae3          	beqz	a5,800026e4 <__subdf3+0x144>
    80002774:	18070663          	beqz	a4,80002900 <__subdf3+0x360>
    80002778:	00100793          	li	a5,1
    8000277c:	00000493          	li	s1,0
    80002780:	03679793          	slli	a5,a5,0x36
    80002784:	7ff00413          	li	s0,2047
    80002788:	21c0006f          	j	800029a4 <__subdf3+0x404>
    8000278c:	7ff00613          	li	a2,2047
    80002790:	20c68663          	beq	a3,a2,8000299c <__subdf3+0x3fc>
    80002794:	00e78733          	add	a4,a5,a4
    80002798:	00175793          	srli	a5,a4,0x1
    8000279c:	00068413          	mv	s0,a3
    800027a0:	ebdff06f          	j	8000265c <__subdf3+0xbc>
    800027a4:	06a05e63          	blez	a0,80002820 <__subdf3+0x280>
    800027a8:	06081063          	bnez	a6,80002808 <__subdf3+0x268>
    800027ac:	ea0708e3          	beqz	a4,8000265c <__subdf3+0xbc>
    800027b0:	fff6851b          	addiw	a0,a3,-1
    800027b4:	02051063          	bnez	a0,800027d4 <__subdf3+0x234>
    800027b8:	40e787b3          	sub	a5,a5,a4
    800027bc:	0377d713          	srli	a4,a5,0x37
    800027c0:	00177713          	andi	a4,a4,1
    800027c4:	e8070ce3          	beqz	a4,8000265c <__subdf3+0xbc>
    800027c8:	00979913          	slli	s2,a5,0x9
    800027cc:	00995913          	srli	s2,s2,0x9
    800027d0:	1500006f          	j	80002920 <__subdf3+0x380>
    800027d4:	7ff00693          	li	a3,2047
    800027d8:	e8d602e3          	beq	a2,a3,8000265c <__subdf3+0xbc>
    800027dc:	03800613          	li	a2,56
    800027e0:	00100693          	li	a3,1
    800027e4:	00a64e63          	blt	a2,a0,80002800 <__subdf3+0x260>
    800027e8:	04000693          	li	a3,64
    800027ec:	40a686bb          	subw	a3,a3,a0
    800027f0:	00a75633          	srl	a2,a4,a0
    800027f4:	00d71733          	sll	a4,a4,a3
    800027f8:	00e03733          	snez	a4,a4
    800027fc:	00e666b3          	or	a3,a2,a4
    80002800:	40d787b3          	sub	a5,a5,a3
    80002804:	fb9ff06f          	j	800027bc <__subdf3+0x21c>
    80002808:	7ff00693          	li	a3,2047
    8000280c:	e4d608e3          	beq	a2,a3,8000265c <__subdf3+0xbc>
    80002810:	00100693          	li	a3,1
    80002814:	03769693          	slli	a3,a3,0x37
    80002818:	00d76733          	or	a4,a4,a3
    8000281c:	fc1ff06f          	j	800027dc <__subdf3+0x23c>
    80002820:	08050063          	beqz	a0,800028a0 <__subdf3+0x300>
    80002824:	02061c63          	bnez	a2,8000285c <__subdf3+0x2bc>
    80002828:	1e078a63          	beqz	a5,80002a1c <__subdf3+0x47c>
    8000282c:	fff6c693          	not	a3,a3
    80002830:	0006869b          	sext.w	a3,a3
    80002834:	00069a63          	bnez	a3,80002848 <__subdf3+0x2a8>
    80002838:	40f707b3          	sub	a5,a4,a5
    8000283c:	00080413          	mv	s0,a6
    80002840:	00058493          	mv	s1,a1
    80002844:	f79ff06f          	j	800027bc <__subdf3+0x21c>
    80002848:	7ff00613          	li	a2,2047
    8000284c:	02c81463          	bne	a6,a2,80002874 <__subdf3+0x2d4>
    80002850:	00070793          	mv	a5,a4
    80002854:	7ff00413          	li	s0,2047
    80002858:	0680006f          	j	800028c0 <__subdf3+0x320>
    8000285c:	7ff00613          	li	a2,2047
    80002860:	fec808e3          	beq	a6,a2,80002850 <__subdf3+0x2b0>
    80002864:	00100613          	li	a2,1
    80002868:	03761613          	slli	a2,a2,0x37
    8000286c:	40d006bb          	negw	a3,a3
    80002870:	00c7e7b3          	or	a5,a5,a2
    80002874:	03800513          	li	a0,56
    80002878:	00100613          	li	a2,1
    8000287c:	00d54e63          	blt	a0,a3,80002898 <__subdf3+0x2f8>
    80002880:	04000613          	li	a2,64
    80002884:	00d7d533          	srl	a0,a5,a3
    80002888:	40d606bb          	subw	a3,a2,a3
    8000288c:	00d797b3          	sll	a5,a5,a3
    80002890:	00f037b3          	snez	a5,a5
    80002894:	00f56633          	or	a2,a0,a5
    80002898:	40c707b3          	sub	a5,a4,a2
    8000289c:	fa1ff06f          	j	8000283c <__subdf3+0x29c>
    800028a0:	00160693          	addi	a3,a2,1
    800028a4:	7fe6f693          	andi	a3,a3,2046
    800028a8:	06069063          	bnez	a3,80002908 <__subdf3+0x368>
    800028ac:	04061263          	bnez	a2,800028f0 <__subdf3+0x350>
    800028b0:	00079c63          	bnez	a5,800028c8 <__subdf3+0x328>
    800028b4:	00000493          	li	s1,0
    800028b8:	0e070663          	beqz	a4,800029a4 <__subdf3+0x404>
    800028bc:	00070793          	mv	a5,a4
    800028c0:	00058493          	mv	s1,a1
    800028c4:	d99ff06f          	j	8000265c <__subdf3+0xbc>
    800028c8:	d8070ae3          	beqz	a4,8000265c <__subdf3+0xbc>
    800028cc:	40e786b3          	sub	a3,a5,a4
    800028d0:	0376d613          	srli	a2,a3,0x37
    800028d4:	00167613          	andi	a2,a2,1
    800028d8:	40f707b3          	sub	a5,a4,a5
    800028dc:	fe0612e3          	bnez	a2,800028c0 <__subdf3+0x320>
    800028e0:	00000793          	li	a5,0
    800028e4:	08068263          	beqz	a3,80002968 <__subdf3+0x3c8>
    800028e8:	00068793          	mv	a5,a3
    800028ec:	d71ff06f          	j	8000265c <__subdf3+0xbc>
    800028f0:	e80792e3          	bnez	a5,80002774 <__subdf3+0x1d4>
    800028f4:	e80702e3          	beqz	a4,80002778 <__subdf3+0x1d8>
    800028f8:	00070793          	mv	a5,a4
    800028fc:	00058493          	mv	s1,a1
    80002900:	7ff00413          	li	s0,2047
    80002904:	d59ff06f          	j	8000265c <__subdf3+0xbc>
    80002908:	40e78933          	sub	s2,a5,a4
    8000290c:	03795693          	srli	a3,s2,0x37
    80002910:	0016f693          	andi	a3,a3,1
    80002914:	04068463          	beqz	a3,8000295c <__subdf3+0x3bc>
    80002918:	40f70933          	sub	s2,a4,a5
    8000291c:	00058493          	mv	s1,a1
    80002920:	00090513          	mv	a0,s2
    80002924:	338000ef          	jal	ra,80002c5c <__clzdi2>
    80002928:	ff85079b          	addiw	a5,a0,-8
    8000292c:	00f91933          	sll	s2,s2,a5
    80002930:	0487c063          	blt	a5,s0,80002970 <__subdf3+0x3d0>
    80002934:	4087853b          	subw	a0,a5,s0
    80002938:	0015051b          	addiw	a0,a0,1
    8000293c:	04000713          	li	a4,64
    80002940:	40a7073b          	subw	a4,a4,a0
    80002944:	00a957b3          	srl	a5,s2,a0
    80002948:	00e91933          	sll	s2,s2,a4
    8000294c:	01203933          	snez	s2,s2
    80002950:	0127e7b3          	or	a5,a5,s2
    80002954:	00000413          	li	s0,0
    80002958:	d05ff06f          	j	8000265c <__subdf3+0xbc>
    8000295c:	fc0912e3          	bnez	s2,80002920 <__subdf3+0x380>
    80002960:	00000793          	li	a5,0
    80002964:	00000413          	li	s0,0
    80002968:	00000493          	li	s1,0
    8000296c:	0380006f          	j	800029a4 <__subdf3+0x404>
    80002970:	40f40433          	sub	s0,s0,a5
    80002974:	fff00793          	li	a5,-1
    80002978:	03779793          	slli	a5,a5,0x37
    8000297c:	fff78793          	addi	a5,a5,-1
    80002980:	00f977b3          	and	a5,s2,a5
    80002984:	cd9ff06f          	j	8000265c <__subdf3+0xbc>
    80002988:	00070793          	mv	a5,a4
    8000298c:	00080413          	mv	s0,a6
    80002990:	ccdff06f          	j	8000265c <__subdf3+0xbc>
    80002994:	00070793          	mv	a5,a4
    80002998:	cc5ff06f          	j	8000265c <__subdf3+0xbc>
    8000299c:	7ff00413          	li	s0,2047
    800029a0:	00000793          	li	a5,0
    800029a4:	0377d713          	srli	a4,a5,0x37
    800029a8:	00177713          	andi	a4,a4,1
    800029ac:	02070063          	beqz	a4,800029cc <__subdf3+0x42c>
    800029b0:	00140413          	addi	s0,s0,1
    800029b4:	7ff00713          	li	a4,2047
    800029b8:	06e40863          	beq	s0,a4,80002a28 <__subdf3+0x488>
    800029bc:	fff00713          	li	a4,-1
    800029c0:	03771713          	slli	a4,a4,0x37
    800029c4:	fff70713          	addi	a4,a4,-1
    800029c8:	00e7f7b3          	and	a5,a5,a4
    800029cc:	7ff00713          	li	a4,2047
    800029d0:	0037d793          	srli	a5,a5,0x3
    800029d4:	00e41a63          	bne	s0,a4,800029e8 <__subdf3+0x448>
    800029d8:	00078863          	beqz	a5,800029e8 <__subdf3+0x448>
    800029dc:	00100793          	li	a5,1
    800029e0:	03379793          	slli	a5,a5,0x33
    800029e4:	00000493          	li	s1,0
    800029e8:	7ff47413          	andi	s0,s0,2047
    800029ec:	00c79793          	slli	a5,a5,0xc
    800029f0:	03441413          	slli	s0,s0,0x34
    800029f4:	00c7d793          	srli	a5,a5,0xc
    800029f8:	00f46433          	or	s0,s0,a5
    800029fc:	03f49513          	slli	a0,s1,0x3f
    80002a00:	01813083          	ld	ra,24(sp)
    80002a04:	00a46533          	or	a0,s0,a0
    80002a08:	01013403          	ld	s0,16(sp)
    80002a0c:	00813483          	ld	s1,8(sp)
    80002a10:	00013903          	ld	s2,0(sp)
    80002a14:	02010113          	addi	sp,sp,32
    80002a18:	00008067          	ret
    80002a1c:	00070793          	mv	a5,a4
    80002a20:	00080413          	mv	s0,a6
    80002a24:	e9dff06f          	j	800028c0 <__subdf3+0x320>
    80002a28:	00000793          	li	a5,0
    80002a2c:	fa1ff06f          	j	800029cc <__subdf3+0x42c>

0000000080002a30 <__fixdfsi>:
    80002a30:	03455693          	srli	a3,a0,0x34
    80002a34:	00c51793          	slli	a5,a0,0xc
    80002a38:	7ff6f693          	andi	a3,a3,2047
    80002a3c:	3fe00613          	li	a2,1022
    80002a40:	00c7d793          	srli	a5,a5,0xc
    80002a44:	03f55713          	srli	a4,a0,0x3f
    80002a48:	04d65263          	bge	a2,a3,80002a8c <__fixdfsi+0x5c>
    80002a4c:	41d00613          	li	a2,1053
    80002a50:	00d65a63          	bge	a2,a3,80002a64 <__fixdfsi+0x34>
    80002a54:	80000537          	lui	a0,0x80000
    80002a58:	fff54513          	not	a0,a0
    80002a5c:	00e5053b          	addw	a0,a0,a4
    80002a60:	00008067          	ret
    80002a64:	00100613          	li	a2,1
    80002a68:	03461613          	slli	a2,a2,0x34
    80002a6c:	00c7e533          	or	a0,a5,a2
    80002a70:	43300793          	li	a5,1075
    80002a74:	40d787bb          	subw	a5,a5,a3
    80002a78:	00f55533          	srl	a0,a0,a5
    80002a7c:	0005051b          	sext.w	a0,a0
    80002a80:	00070863          	beqz	a4,80002a90 <__fixdfsi+0x60>
    80002a84:	40a0053b          	negw	a0,a0
    80002a88:	00008067          	ret
    80002a8c:	00000513          	li	a0,0
    80002a90:	00008067          	ret

0000000080002a94 <__floatsidf>:
    80002a94:	fe010113          	addi	sp,sp,-32
    80002a98:	00113c23          	sd	ra,24(sp)
    80002a9c:	00813823          	sd	s0,16(sp)
    80002aa0:	00913423          	sd	s1,8(sp)
    80002aa4:	06050063          	beqz	a0,80002b04 <__floatsidf+0x70>
    80002aa8:	0005079b          	sext.w	a5,a0
    80002aac:	03f55493          	srli	s1,a0,0x3f
    80002ab0:	00055463          	bgez	a0,80002ab8 <__floatsidf+0x24>
    80002ab4:	40f007bb          	negw	a5,a5
    80002ab8:	02079413          	slli	s0,a5,0x20
    80002abc:	02045413          	srli	s0,s0,0x20
    80002ac0:	00040513          	mv	a0,s0
    80002ac4:	198000ef          	jal	ra,80002c5c <__clzdi2>
    80002ac8:	43e00713          	li	a4,1086
    80002acc:	40a7073b          	subw	a4,a4,a0
    80002ad0:	ff55051b          	addiw	a0,a0,-11
    80002ad4:	00a417b3          	sll	a5,s0,a0
    80002ad8:	01813083          	ld	ra,24(sp)
    80002adc:	01013403          	ld	s0,16(sp)
    80002ae0:	00c79793          	slli	a5,a5,0xc
    80002ae4:	03471713          	slli	a4,a4,0x34
    80002ae8:	00c7d793          	srli	a5,a5,0xc
    80002aec:	03f49513          	slli	a0,s1,0x3f
    80002af0:	00f76733          	or	a4,a4,a5
    80002af4:	00813483          	ld	s1,8(sp)
    80002af8:	00a76533          	or	a0,a4,a0
    80002afc:	02010113          	addi	sp,sp,32
    80002b00:	00008067          	ret
    80002b04:	00000793          	li	a5,0
    80002b08:	00000713          	li	a4,0
    80002b0c:	00000493          	li	s1,0
    80002b10:	fc9ff06f          	j	80002ad8 <__floatsidf+0x44>

0000000080002b14 <__fixunsdfdi>:
    80002b14:	03455713          	srli	a4,a0,0x34
    80002b18:	00c51693          	slli	a3,a0,0xc
    80002b1c:	7ff77713          	andi	a4,a4,2047
    80002b20:	3fe00613          	li	a2,1022
    80002b24:	03f55793          	srli	a5,a0,0x3f
    80002b28:	00c6d693          	srli	a3,a3,0xc
    80002b2c:	00000513          	li	a0,0
    80002b30:	04e65663          	bge	a2,a4,80002b7c <__fixunsdfdi+0x68>
    80002b34:	00079863          	bnez	a5,80002b44 <__fixunsdfdi+0x30>
    80002b38:	43e00793          	li	a5,1086
    80002b3c:	fff00513          	li	a0,-1
    80002b40:	00e7d463          	bge	a5,a4,80002b48 <__fixunsdfdi+0x34>
    80002b44:	00008067          	ret
    80002b48:	00100513          	li	a0,1
    80002b4c:	03451513          	slli	a0,a0,0x34
    80002b50:	00a6e533          	or	a0,a3,a0
    80002b54:	43200693          	li	a3,1074
    80002b58:	0007079b          	sext.w	a5,a4
    80002b5c:	00e6d863          	bge	a3,a4,80002b6c <__fixunsdfdi+0x58>
    80002b60:	bcd7879b          	addiw	a5,a5,-1075
    80002b64:	00f51533          	sll	a0,a0,a5
    80002b68:	00008067          	ret
    80002b6c:	43300713          	li	a4,1075
    80002b70:	40f707bb          	subw	a5,a4,a5
    80002b74:	00f55533          	srl	a0,a0,a5
    80002b78:	00008067          	ret
    80002b7c:	00008067          	ret

0000000080002b80 <__floatundidf>:
    80002b80:	ff010113          	addi	sp,sp,-16
    80002b84:	00813023          	sd	s0,0(sp)
    80002b88:	00113423          	sd	ra,8(sp)
    80002b8c:	00050413          	mv	s0,a0
    80002b90:	00000793          	li	a5,0
    80002b94:	02050263          	beqz	a0,80002bb8 <__floatundidf+0x38>
    80002b98:	0c4000ef          	jal	ra,80002c5c <__clzdi2>
    80002b9c:	43e00793          	li	a5,1086
    80002ba0:	40a787bb          	subw	a5,a5,a0
    80002ba4:	43300713          	li	a4,1075
    80002ba8:	02f74863          	blt	a4,a5,80002bd8 <__floatundidf+0x58>
    80002bac:	00e78663          	beq	a5,a4,80002bb8 <__floatundidf+0x38>
    80002bb0:	ff55051b          	addiw	a0,a0,-11
    80002bb4:	00a41433          	sll	s0,s0,a0
    80002bb8:	00c41413          	slli	s0,s0,0xc
    80002bbc:	00c45413          	srli	s0,s0,0xc
    80002bc0:	03479513          	slli	a0,a5,0x34
    80002bc4:	00813083          	ld	ra,8(sp)
    80002bc8:	00856533          	or	a0,a0,s0
    80002bcc:	00013403          	ld	s0,0(sp)
    80002bd0:	01010113          	addi	sp,sp,16
    80002bd4:	00008067          	ret
    80002bd8:	43600713          	li	a4,1078
    80002bdc:	06f75863          	bge	a4,a5,80002c4c <__floatundidf+0xcc>
    80002be0:	0385071b          	addiw	a4,a0,56
    80002be4:	00800693          	li	a3,8
    80002be8:	00e41733          	sll	a4,s0,a4
    80002bec:	40a686bb          	subw	a3,a3,a0
    80002bf0:	00e03733          	snez	a4,a4
    80002bf4:	00d45433          	srl	s0,s0,a3
    80002bf8:	00876433          	or	s0,a4,s0
    80002bfc:	fff00713          	li	a4,-1
    80002c00:	03771713          	slli	a4,a4,0x37
    80002c04:	fff70713          	addi	a4,a4,-1
    80002c08:	00747693          	andi	a3,s0,7
    80002c0c:	00e47733          	and	a4,s0,a4
    80002c10:	00068a63          	beqz	a3,80002c24 <__floatundidf+0xa4>
    80002c14:	00f47413          	andi	s0,s0,15
    80002c18:	00400693          	li	a3,4
    80002c1c:	00d40463          	beq	s0,a3,80002c24 <__floatundidf+0xa4>
    80002c20:	00470713          	addi	a4,a4,4
    80002c24:	03775693          	srli	a3,a4,0x37
    80002c28:	0016f693          	andi	a3,a3,1
    80002c2c:	00068c63          	beqz	a3,80002c44 <__floatundidf+0xc4>
    80002c30:	fff00693          	li	a3,-1
    80002c34:	03769693          	slli	a3,a3,0x37
    80002c38:	fff68693          	addi	a3,a3,-1
    80002c3c:	00d77733          	and	a4,a4,a3
    80002c40:	00178793          	addi	a5,a5,1
    80002c44:	00375413          	srli	s0,a4,0x3
    80002c48:	f71ff06f          	j	80002bb8 <__floatundidf+0x38>
    80002c4c:	fae788e3          	beq	a5,a4,80002bfc <__floatundidf+0x7c>
    80002c50:	ff85051b          	addiw	a0,a0,-8
    80002c54:	00a41433          	sll	s0,s0,a0
    80002c58:	fa5ff06f          	j	80002bfc <__floatundidf+0x7c>

0000000080002c5c <__clzdi2>:
    80002c5c:	03800793          	li	a5,56
    80002c60:	00f55733          	srl	a4,a0,a5
    80002c64:	0ff77713          	zext.b	a4,a4
    80002c68:	00071663          	bnez	a4,80002c74 <__clzdi2+0x18>
    80002c6c:	ff878793          	addi	a5,a5,-8
    80002c70:	fe0798e3          	bnez	a5,80002c60 <__clzdi2+0x4>
    80002c74:	04000713          	li	a4,64
    80002c78:	40f70733          	sub	a4,a4,a5
    80002c7c:	00f55533          	srl	a0,a0,a5
    80002c80:	00000797          	auipc	a5,0x0
    80002c84:	1e878793          	addi	a5,a5,488 # 80002e68 <__clz_tab>
    80002c88:	00a787b3          	add	a5,a5,a0
    80002c8c:	0007c503          	lbu	a0,0(a5)
    80002c90:	40a7053b          	subw	a0,a4,a0
    80002c94:	00008067          	ret
